(lp1
cnumpy.core.multiarray
_reconstruct
p2
(cnumpy
ndarray
p3
(I0
tS'b'
tRp4
(I1
(I1
tcnumpy
dtype
p5
(S'f8'
I0
I1
tRp6
(I3
S'<'
NNNI-1
I-1
I0
tbI00
S'\x8d\xb2G\x82\xedeP@'
tbag2
(g3
(I0
tS'b'
tRp7
(I1
(I1
tg6
I00
S'\x0e\xe6H\x86\x18\xa8S@'
tbag2
(g3
(I0
tS'b'
tRp8
(I1
(I1
tg6
I00
S'T\x92\x10\xeaRRT@'
tbag2
(g3
(I0
tS'b'
tRp9
(I1
(I1
tg6
I00
S'\x9a\x7ftm\xcd\x11V@'
tbag2
(g3
(I0
tS'b'
tRp10
(I1
(I1
tg6
I00
S'F3/\xcc\xb7\xddV@'
tbag2
(g3
(I0
tS'b'
tRp11
(I1
(I1
tg6
I00
S'4\x8d+ss\xfeU@'
tbag2
(g3
(I0
tS'b'
tRp12
(I1
(I1
tg6
I00
S'Hv\xb2\xcd\xd0\x17U@'
tbag2
(g3
(I0
tS'b'
tRp13
(I1
(I1
tg6
I00
S'1\xc1!\x8c\x14iV@'
tbag2
(g3
(I0
tS'b'
tRp14
(I1
(I1
tg6
I00
S'\x85\xb1\x8d#E\xe7X@'
tbag2
(g3
(I0
tS'b'
tRp15
(I1
(I1
tg6
I00
S'\xc0\xc2\xbd\xbb\xae\xd1X@'
tbag2
(g3
(I0
tS'b'
tRp16
(I1
(I1
tg6
I00
S'\x08\xa2d?\xeb\x87Y@'
tbag2
(g3
(I0
tS'b'
tRp17
(I1
(I1
tg6
I00
S'\xf0v\xef4\xe1\xad[@'
tbag2
(g3
(I0
tS'b'
tRp18
(I1
(I1
tg6
I00
S'2\xc5}\xd7b\n[@'
tbag2
(g3
(I0
tS'b'
tRp19
(I1
(I1
tg6
I00
S'd\xf6\xe6\x94`\xd4X@'
tbag2
(g3
(I0
tS'b'
tRp20
(I1
(I1
tg6
I00
S"\xcc\xa0\x98\xef8'Y@"
tbag2
(g3
(I0
tS'b'
tRp21
(I1
(I1
tg6
I00
S'^\xf8\x97h\x13\x07Z@'
tbag2
(g3
(I0
tS'b'
tRp22
(I1
(I1
tg6
I00
S'\xca\xc6>\xa58\tY@'
tbag2
(g3
(I0
tS'b'
tRp23
(I1
(I1
tg6
I00
S'>\xcc\x04\xc1c\x10X@'
tbag2
(g3
(I0
tS'b'
tRp24
(I1
(I1
tg6
I00
S'\xcc\xcf\x8e\xb2\xe9\x9eY@'
tbag2
(g3
(I0
tS'b'
tRp25
(I1
(I1
tg6
I00
S'\xfa(\xfb\x95\xfa\xdbY@'
tbag2
(g3
(I0
tS'b'
tRp26
(I1
(I1
tg6
I00
S'\x96\x1b\xd5\r\xa9\x0cX@'
tbag2
(g3
(I0
tS'b'
tRp27
(I1
(I1
tg6
I00
S'&\x86 #\x81xV@'
tbag2
(g3
(I0
tS'b'
tRp28
(I1
(I1
tg6
I00
S'\xa4\xa97xG\xd8V@'
tbag2
(g3
(I0
tS'b'
tRp29
(I1
(I1
tg6
I00
S'$4\xdc\xa9R\x9eU@'
tbag2
(g3
(I0
tS'b'
tRp30
(I1
(I1
tg6
I00
S'n!z\x90<eT@'
tbag2
(g3
(I0
tS'b'
tRp31
(I1
(I1
tg6
I00
S'\x0c\xf1?\x0e\xad\x1dU@'
tbag2
(g3
(I0
tS'b'
tRp32
(I1
(I1
tg6
I00
S'\xef\x13\xcf?\x1c\xaeU@'
tbag2
(g3
(I0
tS'b'
tRp33
(I1
(I1
tg6
I00
S'\xfe\xd7\x84\x93\x14\xdfS@'
tbag2
(g3
(I0
tS'b'
tRp34
(I1
(I1
tg6
I00
S'(D3\xec\xeftS@'
tbag2
(g3
(I0
tS'b'
tRp35
(I1
(I1
tg6
I00
S'\xa8BV\x03\xd7\xe5R@'
tbag2
(g3
(I0
tS'b'
tRp36
(I1
(I1
tg6
I00
S'\xa6]\xbf\xcb\t\x82Q@'
tbag2
(g3
(I0
tS'b'
tRp37
(I1
(I1
tg6
I00
S'\xc2V4A\xdd\nO@'
tbag2
(g3
(I0
tS'b'
tRp38
(I1
(I1
tg6
I00
S't\x8aL\xee(BO@'
tbag2
(g3
(I0
tS'b'
tRp39
(I1
(I1
tg6
I00
S'h\xd3;\x1auGS@'
tbag2
(g3
(I0
tS'b'
tRp40
(I1
(I1
tg6
I00
S'\xf4n=\\a<T@'
tbag2
(g3
(I0
tS'b'
tRp41
(I1
(I1
tg6
I00
S'\xae\xea\xa3\xd7\x90\x80T@'
tbag2
(g3
(I0
tS'b'
tRp42
(I1
(I1
tg6
I00
S'\xab<\xed\xe6\xa9\xd1V@'
tbag2
(g3
(I0
tS'b'
tRp43
(I1
(I1
tg6
I00
S'\x18\xa6a\xdahYV@'
tbag2
(g3
(I0
tS'b'
tRp44
(I1
(I1
tg6
I00
S't:r`\xb6\xf0S@'
tbag2
(g3
(I0
tS'b'
tRp45
(I1
(I1
tg6
I00
S'j\x08@\xc4\xed\xb6S@'
tbag2
(g3
(I0
tS'b'
tRp46
(I1
(I1
tg6
I00
S'\x1d k:\xba\xabT@'
tbag2
(g3
(I0
tS'b'
tRp47
(I1
(I1
tg6
I00
S'\x08f\xfa\x98\x1c\xd6T@'
tbag2
(g3
(I0
tS'b'
tRp48
(I1
(I1
tg6
I00
S"np\xf2\t\x93'U@"
tbag2
(g3
(I0
tS'b'
tRp49
(I1
(I1
tg6
I00
S'\x0e\xfc\xfd\x00\r\xf5V@'
tbag2
(g3
(I0
tS'b'
tRp50
(I1
(I1
tg6
I00
S'\\\xd1\xfa\xf9\x01?X@'
tbag2
(g3
(I0
tS'b'
tRp51
(I1
(I1
tg6
I00
S'\xe4\xc0\x8c\xde\x16`V@'
tbag2
(g3
(I0
tS'b'
tRp52
(I1
(I1
tg6
I00
S'\x94\xcas\xcf"\xb0T@'
tbag2
(g3
(I0
tS'b'
tRp53
(I1
(I1
tg6
I00
S'@\xd4\x1f_\xccyU@'
tbag2
(g3
(I0
tS'b'
tRp54
(I1
(I1
tg6
I00
S'Bg\xa5\xc4\xff\xdfT@'
tbag2
(g3
(I0
tS'b'
tRp55
(I1
(I1
tg6
I00
S'\xacHA\x0b\xe2\xcaS@'
tbag2
(g3
(I0
tS'b'
tRp56
(I1
(I1
tg6
I00
S'\nl\xa3\xf1\x17\x16V@'
tbag2
(g3
(I0
tS'b'
tRp57
(I1
(I1
tg6
I00
S'\xb2\x9f\xb6&\xee\xd7W@'
tbag2
(g3
(I0
tS'b'
tRp58
(I1
(I1
tg6
I00
S'\xdbs\xe4l\xe1,W@'
tbag2
(g3
(I0
tS'b'
tRp59
(I1
(I1
tg6
I00
S'\xfan\x11Vq\xaaV@'
tbag2
(g3
(I0
tS'b'
tRp60
(I1
(I1
tg6
I00
S'\\\x9b@\xda\xfcwV@'
tbag2
(g3
(I0
tS'b'
tRp61
(I1
(I1
tg6
I00
S'\xc9\xe9#0\xaf\xf6U@'
tbag2
(g3
(I0
tS'b'
tRp62
(I1
(I1
tg6
I00
S'\xd09\xbc\t\xa4\x16T@'
tbag2
(g3
(I0
tS'b'
tRp63
(I1
(I1
tg6
I00
S'\xf8O\x87\x02\x9a\xfcS@'
tbag2
(g3
(I0
tS'b'
tRp64
(I1
(I1
tg6
I00
S"\xae\xca\xf3'\xa3\xd0V@"
tbag2
(g3
(I0
tS'b'
tRp65
(I1
(I1
tg6
I00
S'J^\x04f[\x04W@'
tbag2
(g3
(I0
tS'b'
tRp66
(I1
(I1
tg6
I00
S'/^\xfd\t\n~V@'
tbag2
(g3
(I0
tS'b'
tRp67
(I1
(I1
tg6
I00
S'\x1c\xcc\xc7g\xa3\xf8W@'
tbag2
(g3
(I0
tS'b'
tRp68
(I1
(I1
tg6
I00
S'\xd0\x1b\x13\x96\xc5\xa3W@'
tbag2
(g3
(I0
tS'b'
tRp69
(I1
(I1
tg6
I00
S'#@a\x07z\xfbT@'
tbag2
(g3
(I0
tS'b'
tRp70
(I1
(I1
tg6
I00
S'\x84\x1a\xa1\xb8[1T@'
tbag2
(g3
(I0
tS'b'
tRp71
(I1
(I1
tg6
I00
S'\xce\xf7\xab\x11\x00@U@'
tbag2
(g3
(I0
tS'b'
tRp72
(I1
(I1
tg6
I00
S'\xf6\xc4\x7fAY\xd1V@'
tbag2
(g3
(I0
tS'b'
tRp73
(I1
(I1
tg6
I00
S'\x14-:\xa8!aX@'
tbag2
(g3
(I0
tS'b'
tRp74
(I1
(I1
tg6
I00
S'\xfaX\x80\x1a\tvZ@'
tbag2
(g3
(I0
tS'b'
tRp75
(I1
(I1
tg6
I00
S'\x92\x945\x98\xc8n\\@'
tbag2
(g3
(I0
tS'b'
tRp76
(I1
(I1
tg6
I00
S' *\x18\x1b\x05,[@'
tbag2
(g3
(I0
tS'b'
tRp77
(I1
(I1
tg6
I00
S'\x98\xd9\x1c\x17\x04DY@'
tbag2
(g3
(I0
tS'b'
tRp78
(I1
(I1
tg6
I00
S'\xb8,Tb\xa8yZ@'
tbag2
(g3
(I0
tS'b'
tRp79
(I1
(I1
tg6
I00
S'\xd2\xe9\x1b\xa2\x98\x85Z@'
tbag2
(g3
(I0
tS'b'
tRp80
(I1
(I1
tg6
I00
S'|\x1b\x9ar\xa9\x9aY@'
tbag2
(g3
(I0
tS'b'
tRp81
(I1
(I1
tg6
I00
S'\xe8\x9f"YPjY@'
tbag2
(g3
(I0
tS'b'
tRp82
(I1
(I1
tg6
I00
S'\x18j\xc97B|Z@'
tbag2
(g3
(I0
tS'b'
tRp83
(I1
(I1
tg6
I00
S'P\xde\xee/\x08\xbbY@'
tbag2
(g3
(I0
tS'b'
tRp84
(I1
(I1
tg6
I00
S'\x10\xc7\xe7\xc5\x98sX@'
tbag2
(g3
(I0
tS'b'
tRp85
(I1
(I1
tg6
I00
S'\xe8r\x84\x1b\xf2\xa1W@'
tbag2
(g3
(I0
tS'b'
tRp86
(I1
(I1
tg6
I00
S'\xf0\x99\xc9\x8aA\x8cW@'
tbag2
(g3
(I0
tS'b'
tRp87
(I1
(I1
tg6
I00
S'\xfc\x8cI\xdc\xddXU@'
tbag2
(g3
(I0
tS'b'
tRp88
(I1
(I1
tg6
I00
S'\xdbF\x870\x02\xabT@'
tbag2
(g3
(I0
tS'b'
tRp89
(I1
(I1
tg6
I00
S'd\x96\xefm\xeb\\V@'
tbag2
(g3
(I0
tS'b'
tRp90
(I1
(I1
tg6
I00
S'\xd2T\xd4\xd1\x19\x8eU@'
tbag2
(g3
(I0
tS'b'
tRp91
(I1
(I1
tg6
I00
S'\xda\x7f\x8a\x7f\xb8\x01T@'
tbag2
(g3
(I0
tS'b'
tRp92
(I1
(I1
tg6
I00
S'7\x11\x079\xf8oT@'
tbag2
(g3
(I0
tS'b'
tRp93
(I1
(I1
tg6
I00
S'\x90\x84\x11\x8a\xf8\xa4S@'
tbag2
(g3
(I0
tS'b'
tRp94
(I1
(I1
tg6
I00
S'\\\x1e\x89\x1061Q@'
tbag2
(g3
(I0
tS'b'
tRp95
(I1
(I1
tg6
I00
S'l\xb8Y2H\x0fO@'
tbag2
(g3
(I0
tS'b'
tRp96
(I1
(I1
tg6
I00
S'%O\x7f\xd8\xc1\x83P@'
tbag2
(g3
(I0
tS'b'
tRp97
(I1
(I1
tg6
I00
S'\x98A\xb3+\x97\xb5Q@'
tbag2
(g3
(I0
tS'b'
tRp98
(I1
(I1
tg6
I00
S'\xb0\xaf\xf1\xaaa-Q@'
tbag2
(g3
(I0
tS'b'
tRp99
(I1
(I1
tg6
I00
S'\x18\x9ep\xb2\x83\xc8Q@'
tbag2
(g3
(I0
tS'b'
tRp100
(I1
(I1
tg6
I00
S'\x9f\xb0\xa1\xcd\xba:S@'
tbag2
(g3
(I0
tS'b'
tRp101
(I1
(I1
tg6
I00
S'\xd6\x00\x03|K\xacQ@'
tbag2
(g3
(I0
tS'b'
tRp102
(I1
(I1
tg6
I00
S'\xb4i\xea\x9c\x00{N@'
tbag2
(g3
(I0
tS'b'
tRp103
(I1
(I1
tg6
I00
S'\xe6\xc5\x17\xeb\x9fKO@'
tbag2
(g3
(I0
tS'b'
tRp104
(I1
(I1
tg6
I00
S'q\xa2r\x91=\xfbO@'
tbag2
(g3
(I0
tS'b'
tRp105
(I1
(I1
tg6
I00
S'\x88\x15+\x86g\x18N@'
tbag2
(g3
(I0
tS'b'
tRp106
(I1
(I1
tg6
I00
S'\xfe\x7f\xc4\xe4\x91\x15T@'
tbag2
(g3
(I0
tS'b'
tRp107
(I1
(I1
tg6
I00
S'\xb9\x17$\xc1\xe1\xf2W@'
tbag2
(g3
(I0
tS'b'
tRp108
(I1
(I1
tg6
I00
S'\x94SO\x9d\xd1PY@'
tbag2
(g3
(I0
tS'b'
tRp109
(I1
(I1
tg6
I00
S'\xf2\r\xdc\x93\xbc\xceX@'
tbag2
(g3
(I0
tS'b'
tRp110
(I1
(I1
tg6
I00
S'\x0cu\xf3Wg\x82X@'
tbag2
(g3
(I0
tS'b'
tRp111
(I1
(I1
tg6
I00
S'\x10\xe2\xe3\xc3\x9dWY@'
tbag2
(g3
(I0
tS'b'
tRp112
(I1
(I1
tg6
I00
S'\n\x01u\xc1\xf50X@'
tbag2
(g3
(I0
tS'b'
tRp113
(I1
(I1
tg6
I00
S'\x96\x9d\xf7-\xc8\x97W@'
tbag2
(g3
(I0
tS'b'
tRp114
(I1
(I1
tg6
I00
S'\xfe3\xcdtq+[@'
tbag2
(g3
(I0
tS'b'
tRp115
(I1
(I1
tg6
I00
S'\x1cTGB&_\\@'
tbag2
(g3
(I0
tS'b'
tRp116
(I1
(I1
tg6
I00
S'\x926q9s\x9d[@'
tbag2
(g3
(I0
tS'b'
tRp117
(I1
(I1
tg6
I00
S'2\xe0$cnU\\@'
tbag2
(g3
(I0
tS'b'
tRp118
(I1
(I1
tg6
I00
S'\x80,\xd7\x14\xa1!\\@'
tbag2
(g3
(I0
tS'b'
tRp119
(I1
(I1
tg6
I00
S'\x92f\xf2\xac?\xc0Z@'
tbag2
(g3
(I0
tS'b'
tRp120
(I1
(I1
tg6
I00
S'\x18`\xab\xf4?]Y@'
tbag2
(g3
(I0
tS'b'
tRp121
(I1
(I1
tg6
I00
S'*:3\x9c\x80HZ@'
tbag2
(g3
(I0
tS'b'
tRp122
(I1
(I1
tg6
I00
S'\xc6\x8c\x1c\x97\xe3\xcd[@'
tbag2
(g3
(I0
tS'b'
tRp123
(I1
(I1
tg6
I00
S'\xa2e\xe5B\x13\xaeY@'
tbag2
(g3
(I0
tS'b'
tRp124
(I1
(I1
tg6
I00
S'\xaa\xd6X\x85\x8a=Y@'
tbag2
(g3
(I0
tS'b'
tRp125
(I1
(I1
tg6
I00
S'0j\xecL\x07\x8cZ@'
tbag2
(g3
(I0
tS'b'
tRp126
(I1
(I1
tg6
I00
S'\x14\xcf\xf9\xb5\x8e\nY@'
tbag2
(g3
(I0
tS'b'
tRp127
(I1
(I1
tg6
I00
S'\xbd\xfe\xc4\xd8\xa4dV@'
tbag2
(g3
(I0
tS'b'
tRp128
(I1
(I1
tg6
I00
S'\xc3K\xeb\x92\x1cHV@'
tbag2
(g3
(I0
tS'b'
tRp129
(I1
(I1
tg6
I00
S'B\xd4\x83\x04\x90\xc4V@'
tbag2
(g3
(I0
tS'b'
tRp130
(I1
(I1
tg6
I00
S'\xde\xdc\xec\x0f[@V@'
tbag2
(g3
(I0
tS'b'
tRp131
(I1
(I1
tg6
I00
S'\xd0q\xca\x8bx\x8bT@'
tbag2
(g3
(I0
tS'b'
tRp132
(I1
(I1
tg6
I00
S"\x98m'\x1f\x14\xb5U@"
tbag2
(g3
(I0
tS'b'
tRp133
(I1
(I1
tg6
I00
S'x\x93\xa7\xac@\xa3U@'
tbag2
(g3
(I0
tS'b'
tRp134
(I1
(I1
tg6
I00
S'\xa0\x80\x1esL]S@'
tbag2
(g3
(I0
tS'b'
tRp135
(I1
(I1
tg6
I00
S'_n\x96|"\xacQ@'
tbag2
(g3
(I0
tS'b'
tRp136
(I1
(I1
tg6
I00
S"M'\xa6\xb4\xd7\xe1Q@"
tbag2
(g3
(I0
tS'b'
tRp137
(I1
(I1
tg6
I00
S'\xb3\x1b5\xa7\xae~P@'
tbag2
(g3
(I0
tS'b'
tRp138
(I1
(I1
tg6
I00
S'\xe9\x87\xe3"\x94\xa7N@'
tbag2
(g3
(I0
tS'b'
tRp139
(I1
(I1
tg6
I00
S'\xb9\xabpN%yS@'
tbag2
(g3
(I0
tS'b'
tRp140
(I1
(I1
tg6
I00
S'@qSf\xee\x01V@'
tbag2
(g3
(I0
tS'b'
tRp141
(I1
(I1
tg6
I00
S'\xf2`c\xe3+cU@'
tbag2
(g3
(I0
tS'b'
tRp142
(I1
(I1
tg6
I00
S'\xee\xd9\x15tR\xccU@'
tbag2
(g3
(I0
tS'b'
tRp143
(I1
(I1
tg6
I00
S'\x1c\xf3\xc1L\xbf\xa5U@'
tbag2
(g3
(I0
tS'b'
tRp144
(I1
(I1
tg6
I00
S'\xb8\xed\xf9\xbd\x93\xd9T@'
tbag2
(g3
(I0
tS'b'
tRp145
(I1
(I1
tg6
I00
S'\x7f\xa9\xd4\xc6_KS@'
tbag2
(g3
(I0
tS'b'
tRp146
(I1
(I1
tg6
I00
S'\xe8\x17\xc0/\xec\xbeS@'
tbag2
(g3
(I0
tS'b'
tRp147
(I1
(I1
tg6
I00
S'\xc0u\x12\x03\xcbsV@'
tbag2
(g3
(I0
tS'b'
tRp148
(I1
(I1
tg6
I00
S',\x08u\x05\xbe>V@'
tbag2
(g3
(I0
tS'b'
tRp149
(I1
(I1
tg6
I00
S'\x14\xe1K\xf26\xf4U@'
tbag2
(g3
(I0
tS'b'
tRp150
(I1
(I1
tg6
I00
S'\x9al7&8\xeeW@'
tbag2
(g3
(I0
tS'b'
tRp151
(I1
(I1
tg6
I00
S'@\xc3\xfaVg\x08W@'
tbag2
(g3
(I0
tS'b'
tRp152
(I1
(I1
tg6
I00
S'Vc\x18\x81>\x93T@'
tbag2
(g3
(I0
tS'b'
tRp153
(I1
(I1
tg6
I00
S"\xa8lu\x99'CT@"
tbag2
(g3
(I0
tS'b'
tRp154
(I1
(I1
tg6
I00
S'\x16\xa1u);%U@'
tbag2
(g3
(I0
tS'b'
tRp155
(I1
(I1
tg6
I00
S"\xae'\x17\x98\xf7@U@"
tbag2
(g3
(I0
tS'b'
tRp156
(I1
(I1
tg6
I00
S'\x93\xfa\x87\x88\xc6\x87U@'
tbag2
(g3
(I0
tS'b'
tRp157
(I1
(I1
tg6
I00
S'\xc2"\x87[\xbaLW@'
tbag2
(g3
(I0
tS'b'
tRp158
(I1
(I1
tg6
I00
S'w\xf8\x9db\xf0\x8eX@'
tbag2
(g3
(I0
tS'b'
tRp159
(I1
(I1
tg6
I00
S'.\xa4\x81\x8e\x9atV@'
tbag2
(g3
(I0
tS'b'
tRp160
(I1
(I1
tg6
I00
S'\xa8\xee\xee\xb7\x0b\xdaT@'
tbag2
(g3
(I0
tS'b'
tRp161
(I1
(I1
tg6
I00
S'\xbaH\\\xf8\xe7\xa5U@'
tbag2
(g3
(I0
tS'b'
tRp162
(I1
(I1
tg6
I00
S'J\x1f\xf7\xe9\xf2\nU@'
tbag2
(g3
(I0
tS'b'
tRp163
(I1
(I1
tg6
I00
S"\x84\xab\x90\xc2\xb4'T@"
tbag2
(g3
(I0
tS'b'
tRp164
(I1
(I1
tg6
I00
S'3[.@\x1fTV@'
tbag2
(g3
(I0
tS'b'
tRp165
(I1
(I1
tg6
I00
S'l2\xdfP\x83\nX@'
tbag2
(g3
(I0
tS'b'
tRp166
(I1
(I1
tg6
I00
S'0\xcf\xce\x1f8XW@'
tbag2
(g3
(I0
tS'b'
tRp167
(I1
(I1
tg6
I00
S'"\x1a\xe7 #\x9cV@'
tbag2
(g3
(I0
tS'b'
tRp168
(I1
(I1
tg6
I00
S'\xc8\xedC\xd1\x80\x81V@'
tbag2
(g3
(I0
tS'b'
tRp169
(I1
(I1
tg6
I00
S'\xd0\x06\x86\xc4\xf3\x04V@'
tbag2
(g3
(I0
tS'b'
tRp170
(I1
(I1
tg6
I00
S'\xc6\xb9y\xde\x15&T@'
tbag2
(g3
(I0
tS'b'
tRp171
(I1
(I1
tg6
I00
S'\xed\xac74\xf3\x0bT@'
tbag2
(g3
(I0
tS'b'
tRp172
(I1
(I1
tg6
I00
S'\x86v~Mt\x18X@'
tbag2
(g3
(I0
tS'b'
tRp173
(I1
(I1
tg6
I00
S'\xa8\xee\x16\t\xbc\xaeY@'
tbag2
(g3
(I0
tS'b'
tRp174
(I1
(I1
tg6
I00
S'v$\x84\x87M\xe9Y@'
tbag2
(g3
(I0
tS'b'
tRp175
(I1
(I1
tg6
I00
S'\xa43\x9e\xc2L\xe8[@'
tbag2
(g3
(I0
tS'b'
tRp176
(I1
(I1
tg6
I00
S'\xc4\n\xa9\xac~\xc1[@'
tbag2
(g3
(I0
tS'b'
tRp177
(I1
(I1
tg6
I00
S'\xcc\xaa\x97\xc2*\x82Y@'
tbag2
(g3
(I0
tS'b'
tRp178
(I1
(I1
tg6
I00
S'"\xd3\x11\x98/\x00Y@'
tbag2
(g3
(I0
tS'b'
tRp179
(I1
(I1
tg6
I00
S'&wT1kHZ@'
tbag2
(g3
(I0
tS'b'
tRp180
(I1
(I1
tg6
I00
S'\xd0\xe8\x07\x19Jl[@'
tbag2
(g3
(I0
tS'b'
tRp181
(I1
(I1
tg6
I00
S'*\xed"FOaY@'
tbag2
(g3
(I0
tS'b'
tRp182
(I1
(I1
tg6
I00
S'\xac\xb8\xf4qP\xc8Y@'
tbag2
(g3
(I0
tS'b'
tRp183
(I1
(I1
tg6
I00
S'\x0eJH\xbfJ\xacZ@'
tbag2
(g3
(I0
tS'b'
tRp184
(I1
(I1
tg6
I00
S'\xfc1\xa1\xb6\xacqX@'
tbag2
(g3
(I0
tS'b'
tRp185
(I1
(I1
tg6
I00
S'\x87\x8c\x1a\x8e\xd1\x12V@'
tbag2
(g3
(I0
tS'b'
tRp186
(I1
(I1
tg6
I00
S'\x08\x85\x02)\x1b\xdbV@'
tbag2
(g3
(I0
tS'b'
tRp187
(I1
(I1
tg6
I00
S'\xa2\xba\xe6E=\x8aV@'
tbag2
(g3
(I0
tS'b'
tRp188
(I1
(I1
tg6
I00
S'\xc0\xf1\xaa\xaa\xc7\x86U@'
tbag2
(g3
(I0
tS'b'
tRp189
(I1
(I1
tg6
I00
S'k\xa4\xa2\xe4\xeebU@'
tbag2
(g3
(I0
tS'b'
tRp190
(I1
(I1
tg6
I00
S'\xecy\x82\xef\xa3\x00V@'
tbag2
(g3
(I0
tS'b'
tRp191
(I1
(I1
tg6
I00
S";GV'\xd4\xfaT@"
tbag2
(g3
(I0
tS'b'
tRp192
(I1
(I1
tg6
I00
S'\xc5\xff\x10\xb4rHS@'
tbag2
(g3
(I0
tS'b'
tRp193
(I1
(I1
tg6
I00
S'Hxg\x97\x90dR@'
tbag2
(g3
(I0
tS'b'
tRp194
(I1
(I1
tg6
I00
S'h\x1a\xd1i%/R@'
tbag2
(g3
(I0
tS'b'
tRp195
(I1
(I1
tg6
I00
S"\x8a\xc4\x12I'\xb9O@"
tbag2
(g3
(I0
tS'b'
tRp196
(I1
(I1
tg6
I00
S'XH$\x0c%\x8bN@'
tbag2
(g3
(I0
tS'b'
tRp197
(I1
(I1
tg6
I00
S'">\xccL\x1f.R@'
tbag2
(g3
(I0
tS'b'
tRp198
(I1
(I1
tg6
I00
S'\xf6\x12b\x85\xb4\x85R@'
tbag2
(g3
(I0
tS'b'
tRp199
(I1
(I1
tg6
I00
S'\xf2\xdb_%f\x98Q@'
tbag2
(g3
(I0
tS'b'
tRp200
(I1
(I1
tg6
I00
S'\x9e\xe7\xb9\x81\xddpR@'
tbag2
(g3
(I0
tS'b'
tRp201
(I1
(I1
tg6
I00
S'$A@RU\xbeQ@'
tbag2
(g3
(I0
tS'b'
tRp202
(I1
(I1
tg6
I00
S'\x88\xa3\xd3>HBO@'
tbag2
(g3
(I0
tS'b'
tRp203
(I1
(I1
tg6
I00
S'?L\x16K\xcf^L@'
tbag2
(g3
(I0
tS'b'
tRp204
(I1
(I1
tg6
I00
S'\x11\xf2\x14)\x04\xadN@'
tbag2
(g3
(I0
tS'b'
tRp205
(I1
(I1
tg6
I00
S"\x9e' \xdc'GQ@"
tbag2
(g3
(I0
tS'b'
tRp206
(I1
(I1
tg6
I00
S'R<\x10p7\x9bT@'
tbag2
(g3
(I0
tS'b'
tRp207
(I1
(I1
tg6
I00
S'\x1fQ5UO\x1cW@'
tbag2
(g3
(I0
tS'b'
tRp208
(I1
(I1
tg6
I00
S'Lq\x9c\x9a\x12\xd6Y@'
tbag2
(g3
(I0
tS'b'
tRp209
(I1
(I1
tg6
I00
S'\xc4+\xe8\x10\xba\x04Y@'
tbag2
(g3
(I0
tS'b'
tRp210
(I1
(I1
tg6
I00
S'\xcc\x91\xfdt\x06nW@'
tbag2
(g3
(I0
tS'b'
tRp211
(I1
(I1
tg6
I00
S'\xe9\x8b\xef\x11qyX@'
tbag2
(g3
(I0
tS'b'
tRp212
(I1
(I1
tg6
I00
S'\xb8\x82\x1d\xeeyXY@'
tbag2
(g3
(I0
tS'b'
tRp213
(I1
(I1
tg6
I00
S'0m\x07#\xa4\xd7X@'
tbag2
(g3
(I0
tS'b'
tRp214
(I1
(I1
tg6
I00
S'>=\xc6\x0b,+Z@'
tbag2
(g3
(I0
tS'b'
tRp215
(I1
(I1
tg6
I00
S'\xf4\xb3\xca]\xaco\\@'
tbag2
(g3
(I0
tS'b'
tRp216
(I1
(I1
tg6
I00
S'\xb8\xf6\xf1-h\xd5\\@'
tbag2
(g3
(I0
tS'b'
tRp217
(I1
(I1
tg6
I00
S'\x88H\xfe\x9bQy[@'
tbag2
(g3
(I0
tS'b'
tRp218
(I1
(I1
tg6
I00
S".\x16\xe6'\xa5\xd3Z@"
tbag2
(g3
(I0
tS'b'
tRp219
(I1
(I1
tg6
I00
S'j\xed\xee1RW[@'
tbag2
(g3
(I0
tS'b'
tRp220
(I1
(I1
tg6
I00
S'X\xe6\xb6\xfb!\xedY@'
tbag2
(g3
(I0
tS'b'
tRp221
(I1
(I1
tg6
I00
S'\xfe\x19\xf6\x90\xcdRY@'
tbag2
(g3
(I0
tS'b'
tRp222
(I1
(I1
tg6
I00
S'\xe2Q\xdc|A\x9a[@'
tbag2
(g3
(I0
tS'b'
tRp223
(I1
(I1
tg6
I00
S'\x0e\xbe\x7f\x82A&[@'
tbag2
(g3
(I0
tS'b'
tRp224
(I1
(I1
tg6
I00
S'\x8cG\xf8\xc7\xedxY@'
tbag2
(g3
(I0
tS'b'
tRp225
(I1
(I1
tg6
I00
S'\xa0\x8e\xc1z\xed\x89Y@'
tbag2
(g3
(I0
tS'b'
tRp226
(I1
(I1
tg6
I00
S't\x04\xaa\xc9\x82\xa2X@'
tbag2
(g3
(I0
tS'b'
tRp227
(I1
(I1
tg6
I00
S'\xd2d\xd8\x95\xe6\xf5V@'
tbag2
(g3
(I0
tS'b'
tRp228
(I1
(I1
tg6
I00
S'?\xd1\xc5\xcarDU@'
tbag2
(g3
(I0
tS'b'
tRp229
(I1
(I1
tg6
I00
S'\xfes\xda&B\xeaU@'
tbag2
(g3
(I0
tS'b'
tRp230
(I1
(I1
tg6
I00
S'\xa8\x92\xacxO8X@'
tbag2
(g3
(I0
tS'b'
tRp231
(I1
(I1
tg6
I00
S'x\x19P\xeaeYU@'
tbag2
(g3
(I0
tS'b'
tRp232
(I1
(I1
tg6
I00
S'\xc2C\xe7LD\x91T@'
tbag2
(g3
(I0
tS'b'
tRp233
(I1
(I1
tg6
I00
S'\x044\x15\xc1\x15\xa0U@'
tbag2
(g3
(I0
tS'b'
tRp234
(I1
(I1
tg6
I00
S'\x0c\xa1b>\x18\xb7S@'
tbag2
(g3
(I0
tS'b'
tRp235
(I1
(I1
tg6
I00
S'\x84[\x95\xa7\xb1\x02Q@'
tbag2
(g3
(I0
tS'b'
tRp236
(I1
(I1
tg6
I00
S'\xf3\x93\xc6\xdf\x9c\xc9P@'
tbag2
(g3
(I0
tS'b'
tRp237
(I1
(I1
tg6
I00
S'\xec=\x1e\xdf!)Q@'
tbag2
(g3
(I0
tS'b'
tRp238
(I1
(I1
tg6
I00
S'\xae7\xa2\xf1e\xbeP@'
tbag2
(g3
(I0
tS'b'
tRp239
(I1
(I1
tg6
I00
S'\x98f\x873\xd3\xb4R@'
tbag2
(g3
(I0
tS'b'
tRp240
(I1
(I1
tg6
I00
S'\xfc`\xb4\xbc\x87\xc4U@'
tbag2
(g3
(I0
tS'b'
tRp241
(I1
(I1
tg6
I00
S'h\x0b\xb3{@\xe3V@'
tbag2
(g3
(I0
tS'b'
tRp242
(I1
(I1
tg6
I00
S'\x08\xc2&\xb8\xc0?U@'
tbag2
(g3
(I0
tS'b'
tRp243
(I1
(I1
tg6
I00
S'\x99\xd9\x1a]\x95KT@'
tbag2
(g3
(I0
tS'b'
tRp244
(I1
(I1
tg6
I00
S'\xbe\xbb,\xdbM\nU@'
tbag2
(g3
(I0
tS'b'
tRp245
(I1
(I1
tg6
I00
S'Ti\x85\x19S\x16T@'
tbag2
(g3
(I0
tS'b'
tRp246
(I1
(I1
tg6
I00
S'\x0c\xef\x9dL!zS@'
tbag2
(g3
(I0
tS'b'
tRp247
(I1
(I1
tg6
I00
S'&\xa7\xc7\xbc\xa3,V@'
tbag2
(g3
(I0
tS'b'
tRp248
(I1
(I1
tg6
I00
S'"\x9f\xc9w\xcb\xbdW@'
tbag2
(g3
(I0
tS'b'
tRp249
(I1
(I1
tg6
I00
S'\x10[\xc6\xe1*\xa0V@'
tbag2
(g3
(I0
tS'b'
tRp250
(I1
(I1
tg6
I00
S'FHt\x94:\x87V@'
tbag2
(g3
(I0
tS'b'
tRp251
(I1
(I1
tg6
I00
S'\x9a\xaa\xf2|\xf3IV@'
tbag2
(g3
(I0
tS'b'
tRp252
(I1
(I1
tg6
I00
S'\x14\x95\xb7\xfbQbU@'
tbag2
(g3
(I0
tS'b'
tRp253
(I1
(I1
tg6
I00
S'\xf7@`\xc7\x91\xbdS@'
tbag2
(g3
(I0
tS'b'
tRp254
(I1
(I1
tg6
I00
S'\x08\x8ap\x04  T@'
tbag2
(g3
(I0
tS'b'
tRp255
(I1
(I1
tg6
I00
S'\xd1\x1cS\x0b\xcb\x93V@'
tbag2
(g3
(I0
tS'b'
tRp256
(I1
(I1
tg6
I00
S'U)\xd1/lrV@'
tbag2
(g3
(I0
tS'b'
tRp257
(I1
(I1
tg6
I00
S'\x96i\xf7\xc5\xa2)V@'
tbag2
(g3
(I0
tS'b'
tRp258
(I1
(I1
tg6
I00
S'\xd1m\x94\xca\xe9!X@'
tbag2
(g3
(I0
tS'b'
tRp259
(I1
(I1
tg6
I00
S'(\xf1X&\x0b\x05W@'
tbag2
(g3
(I0
tS'b'
tRp260
(I1
(I1
tg6
I00
S'\x13\t\x99\n\xf9\xa7T@'
tbag2
(g3
(I0
tS'b'
tRp261
(I1
(I1
tg6
I00
S'\xbeC\x0e\x12\x8a\\T@'
tbag2
(g3
(I0
tS'b'
tRp262
(I1
(I1
tg6
I00
S'6\xc7\x17\x98\xaa?U@'
tbag2
(g3
(I0
tS'b'
tRp263
(I1
(I1
tg6
I00
S'\xa7#\x87\x1a]\xc3U@'
tbag2
(g3
(I0
tS'b'
tRp264
(I1
(I1
tg6
I00
S'\xd8F\xc9\xcbJ\xd1U@'
tbag2
(g3
(I0
tS'b'
tRp265
(I1
(I1
tg6
I00
S'~\x80@\xdf\x9a\x83W@'
tbag2
(g3
(I0
tS'b'
tRp266
(I1
(I1
tg6
I00
S'\x92\xfa\x81\x9f3\xbbX@'
tbag2
(g3
(I0
tS'b'
tRp267
(I1
(I1
tg6
I00
S"g\xd3\xba'|eV@"
tbag2
(g3
(I0
tS'b'
tRp268
(I1
(I1
tg6
I00
S'<u\x9e\xf5\xfd\xe1T@'
tbag2
(g3
(I0
tS'b'
tRp269
(I1
(I1
tg6
I00
S'Ii\x0cxF\xb2U@'
tbag2
(g3
(I0
tS'b'
tRp270
(I1
(I1
tg6
I00
S'g*\xa1(7\x18U@'
tbag2
(g3
(I0
tS'b'
tRp271
(I1
(I1
tg6
I00
S'\x16\x12\n\xd9\x04iT@'
tbag2
(g3
(I0
tS'b'
tRp272
(I1
(I1
tg6
I00
S'\x90\x0c\x18\x0e\xea\xb1W@'
tbag2
(g3
(I0
tS'b'
tRp273
(I1
(I1
tg6
I00
S' \xa6\xc3\xd4\xb0\xc2Z@'
tbag2
(g3
(I0
tS'b'
tRp274
(I1
(I1
tg6
I00
S'\x8a|\xee\x01\x06\xcdZ@'
tbag2
(g3
(I0
tS'b'
tRp275
(I1
(I1
tg6
I00
S'\xfa*M \x8e^Z@'
tbag2
(g3
(I0
tS'b'
tRp276
(I1
(I1
tg6
I00
S'\xe8*4\n\x91\xc0Z@'
tbag2
(g3
(I0
tS'b'
tRp277
(I1
(I1
tg6
I00
S'\x9aD\\b\x90\x98Z@'
tbag2
(g3
(I0
tS'b'
tRp278
(I1
(I1
tg6
I00
S'$\xf6E\xab\x04\xfdX@'
tbag2
(g3
(I0
tS'b'
tRp279
(I1
(I1
tg6
I00
S'L\xf4\x87\x16VNY@'
tbag2
(g3
(I0
tS'b'
tRp280
(I1
(I1
tg6
I00
S'\x1el\xc6\x19Sg\\@'
tbag2
(g3
(I0
tS'b'
tRp281
(I1
(I1
tg6
I00
S'\xf6T\x80\x81^\x91Z@'
tbag2
(g3
(I0
tS'b'
tRp282
(I1
(I1
tg6
I00
S'x(tO\r*Y@'
tbag2
(g3
(I0
tS'b'
tRp283
(I1
(I1
tg6
I00
S'r@\xea\xdb\x0c\x1aZ@'
tbag2
(g3
(I0
tS'b'
tRp284
(I1
(I1
tg6
I00
S'\xea\xd3T\x05\x08\xffX@'
tbag2
(g3
(I0
tS'b'
tRp285
(I1
(I1
tg6
I00
S'\\-\xb2)mJV@'
tbag2
(g3
(I0
tS'b'
tRp286
(I1
(I1
tg6
I00
S'xu:\xec2\\U@'
tbag2
(g3
(I0
tS'b'
tRp287
(I1
(I1
tg6
I00
S'\xe10\xe82\xbfHV@'
tbag2
(g3
(I0
tS'b'
tRp288
(I1
(I1
tg6
I00
S'\x92\xf2\x80`\xbaTW@'
tbag2
(g3
(I0
tS'b'
tRp289
(I1
(I1
tg6
I00
S'\x17&p\xfc\x18#U@'
tbag2
(g3
(I0
tS'b'
tRp290
(I1
(I1
tg6
I00
S'\xdc\xa0\xee\xd1\xef1U@'
tbag2
(g3
(I0
tS'b'
tRp291
(I1
(I1
tg6
I00
S'\xcc\x87\x84\xba\xf3\xd9U@'
tbag2
(g3
(I0
tS'b'
tRp292
(I1
(I1
tg6
I00
S'wj\xa5\x00\x0e9S@'
tbag2
(g3
(I0
tS'b'
tRp293
(I1
(I1
tg6
I00
S'\x92%n\xa5\xe0\xcaP@'
tbag2
(g3
(I0
tS'b'
tRp294
(I1
(I1
tg6
I00
S'{\x85\xa4\x91AuQ@'
tbag2
(g3
(I0
tS'b'
tRp295
(I1
(I1
tg6
I00
S'\x88,g\xdd\x80\x06Q@'
tbag2
(g3
(I0
tS'b'
tRp296
(I1
(I1
tg6
I00
S'\x91HW!\r\x1bP@'
tbag2
(g3
(I0
tS'b'
tRp297
(I1
(I1
tg6
I00
S'\xd4\x9fL\x93\xf9bQ@'
tbag2
(g3
(I0
tS'b'
tRp298
(I1
(I1
tg6
I00
S'\xe8\x95\x06\xb1!\x0cS@'
tbag2
(g3
(I0
tS'b'
tRp299
(I1
(I1
tg6
I00
S'2Y\xaf\x17j\x9dR@'
tbag2
(g3
(I0
tS'b'
tRp300
(I1
(I1
tg6
I00
S'd\xfcx|\xed\x1cQ@'
tbag2
(g3
(I0
tS'b'
tRp301
(I1
(I1
tg6
I00
S'\x8a\xcf\xc4\xf22\x9fP@'
tbag2
(g3
(I0
tS'b'
tRp302
(I1
(I1
tg6
I00
S'}N\x88_\x94\xabP@'
tbag2
(g3
(I0
tS'b'
tRp303
(I1
(I1
tg6
I00
S'\x91\xf1p^\x18\x18M@'
tbag2
(g3
(I0
tS'b'
tRp304
(I1
(I1
tg6
I00
S'\x90\xe5z\xf0\x8c\xa3L@'
tbag2
(g3
(I0
tS'b'
tRp305
(I1
(I1
tg6
I00
S'\x95\x9c5\x85\xb3\xdbQ@'
tbag2
(g3
(I0
tS'b'
tRp306
(I1
(I1
tg6
I00
S'\xe6\xdb\x05\t\x16\x06V@'
tbag2
(g3
(I0
tS'b'
tRp307
(I1
(I1
tg6
I00
S'r\xf2\x00l\x04\xfaV@'
tbag2
(g3
(I0
tS'b'
tRp308
(I1
(I1
tg6
I00
S'\x8e4\x94\xa0\xee\x16Y@'
tbag2
(g3
(I0
tS'b'
tRp309
(I1
(I1
tg6
I00
S'\xc6\xc7=Z\xb9\x1fY@'
tbag2
(g3
(I0
tS'b'
tRp310
(I1
(I1
tg6
I00
S'\x08\xfcl\xe6\xef\xd8W@'
tbag2
(g3
(I0
tS'b'
tRp311
(I1
(I1
tg6
I00
S'0f\xdc;+\tW@'
tbag2
(g3
(I0
tS'b'
tRp312
(I1
(I1
tg6
I00
S'\x8d\x12nq\x9f\xb6X@'
tbag2
(g3
(I0
tS'b'
tRp313
(I1
(I1
tg6
I00
S'\xfc\x84\xf7\x8b\xbf\xe2Z@'
tbag2
(g3
(I0
tS'b'
tRp314
(I1
(I1
tg6
I00
S'F\xbc&\x19d\x9cZ@'
tbag2
(g3
(I0
tS'b'
tRp315
(I1
(I1
tg6
I00
S'\xfe\x04\x0e+\xb4\x8c[@'
tbag2
(g3
(I0
tS'b'
tRp316
(I1
(I1
tg6
I00
S'\xdc\xc3\xf0GdR]@'
tbag2
(g3
(I0
tS'b'
tRp317
(I1
(I1
tg6
I00
S'\x8c\xd3\xef\xdcv\xa9[@'
tbag2
(g3
(I0
tS'b'
tRp318
(I1
(I1
tg6
I00
S'\x1ai\xc1\x06\xcd\xbaY@'
tbag2
(g3
(I0
tS'b'
tRp319
(I1
(I1
tg6
I00
S"vV'(\x93uZ@"
tbag2
(g3
(I0
tS'b'
tRp320
(I1
(I1
tg6
I00
S'\xc4\x9a\x04W\xde\x11[@'
tbag2
(g3
(I0
tS'b'
tRp321
(I1
(I1
tg6
I00
S'hB\xa7\xa1q\x90Z@'
tbag2
(g3
(I0
tS'b'
tRp322
(I1
(I1
tg6
I00
S' \\ \xfc\x1adZ@'
tbag2
(g3
(I0
tS'b'
tRp323
(I1
(I1
tg6
I00
S'\xd0\x15\x046\xe2\x1c[@'
tbag2
(g3
(I0
tS'b'
tRp324
(I1
(I1
tg6
I00
S'J\x1cz\x04\x88\x9fZ@'
tbag2
(g3
(I0
tS'b'
tRp325
(I1
(I1
tg6
I00
S'\xef\xf4Y\xf2\xcflX@'
tbag2
(g3
(I0
tS'b'
tRp326
(I1
(I1
tg6
I00
S'\xc8\xe6\xafupfW@'
tbag2
(g3
(I0
tS'b'
tRp327
(I1
(I1
tg6
I00
S'\xa4\xd8"\xe97\x8dW@'
tbag2
(g3
(I0
tS'b'
tRp328
(I1
(I1
tg6
I00
S'\xd4\xf3\xf10\xe1\xd1U@'
tbag2
(g3
(I0
tS'b'
tRp329
(I1
(I1
tg6
I00
S'\xae\x8f\xdew\xb7%U@'
tbag2
(g3
(I0
tS'b'
tRp330
(I1
(I1
tg6
I00
S'\x98\x96)\xdd\xc6\x19X@'
tbag2
(g3
(I0
tS'b'
tRp331
(I1
(I1
tg6
I00
S'\xc2\x98\xd0\x18\x9a\xdeV@'
tbag2
(g3
(I0
tS'b'
tRp332
(I1
(I1
tg6
I00
S'UZ|\xa9x\xd5T@'
tbag2
(g3
(I0
tS'b'
tRp333
(I1
(I1
tg6
I00
S'2n\xd3\xf7\xedoT@'
tbag2
(g3
(I0
tS'b'
tRp334
(I1
(I1
tg6
I00
S'(!\xb1@\xb9oS@'
tbag2
(g3
(I0
tS'b'
tRp335
(I1
(I1
tg6
I00
S'\xb4\x0b\xf7\xaf\xe5\x9fQ@'
tbag2
(g3
(I0
tS'b'
tRp336
(I1
(I1
tg6
I00
S'\x88n\x15\x8fW\x9aO@'
tbag2
(g3
(I0
tS'b'
tRp337
(I1
(I1
tg6
I00
S'!\x1b\x7f\x0c\xc1SP@'
tbag2
(g3
(I0
tS'b'
tRp338
(I1
(I1
tg6
I00
S'2\xaaU\x82\xa0\xb9R@'
tbag2
(g3
(I0
tS'b'
tRp339
(I1
(I1
tg6
I00
S'l\xfd3\xe3\x9a\xb9S@'
tbag2
(g3
(I0
tS'b'
tRp340
(I1
(I1
tg6
I00
S'b\xac8Ez\xbbT@'
tbag2
(g3
(I0
tS'b'
tRp341
(I1
(I1
tg6
I00
S'L(*\xe8\x10\xf2V@'
tbag2
(g3
(I0
tS'b'
tRp342
(I1
(I1
tg6
I00
S'\xd9\x81m4\xf3\xa6U@'
tbag2
(g3
(I0
tS'b'
tRp343
(I1
(I1
tg6
I00
S'\x8f\xa4eWD\xacS@'
tbag2
(g3
(I0
tS'b'
tRp344
(I1
(I1
tg6
I00
S'\x92I\xecWk\xfaS@'
tbag2
(g3
(I0
tS'b'
tRp345
(I1
(I1
tg6
I00
S'V\xd9\xdc\xd3\xdc\xc7T@'
tbag2
(g3
(I0
tS'b'
tRp346
(I1
(I1
tg6
I00
S'\x80\x9e-\xf1\xb4\xeaT@'
tbag2
(g3
(I0
tS'b'
tRp347
(I1
(I1
tg6
I00
S'\xb25\xf4}/9U@'
tbag2
(g3
(I0
tS'b'
tRp348
(I1
(I1
tg6
I00
S'\xba\xbfBx=lW@'
tbag2
(g3
(I0
tS'b'
tRp349
(I1
(I1
tg6
I00
S'P4\x01K\x19\x14X@'
tbag2
(g3
(I0
tS'b'
tRp350
(I1
(I1
tg6
I00
S'?\xb4\xd9\x99\x9d\xf2U@'
tbag2
(g3
(I0
tS'b'
tRp351
(I1
(I1
tg6
I00
S'\xb4\x83<\x91%\xeaT@'
tbag2
(g3
(I0
tS'b'
tRp352
(I1
(I1
tg6
I00
S'\x02\xe4Y7\xc4\x8eU@'
tbag2
(g3
(I0
tS'b'
tRp353
(I1
(I1
tg6
I00
S'\xb2Q\x83\xb0\x1d\x85T@'
tbag2
(g3
(I0
tS'b'
tRp354
(I1
(I1
tg6
I00
S'\xbc\xfd\xc5\xde\xf1\x0cT@'
tbag2
(g3
(I0
tS'b'
tRp355
(I1
(I1
tg6
I00
S'\xadFK\x10}\xfaU@'
tbag2
(g3
(I0
tS'b'
tRp356
(I1
(I1
tg6
I00
S'\xf4Yx\xd7%\xcfW@'
tbag2
(g3
(I0
tS'b'
tRp357
(I1
(I1
tg6
I00
S'\x1aYg\t\xbe\xbfV@'
tbag2
(g3
(I0
tS'b'
tRp358
(I1
(I1
tg6
I00
S'pZ\xc6t*wV@'
tbag2
(g3
(I0
tS'b'
tRp359
(I1
(I1
tg6
I00
S'\x8a\x992p\xd3VV@'
tbag2
(g3
(I0
tS'b'
tRp360
(I1
(I1
tg6
I00
S'\xf7ig\x1d!vU@'
tbag2
(g3
(I0
tS'b'
tRp361
(I1
(I1
tg6
I00
S'\xa2\x08\xedDw\xd3S@'
tbag2
(g3
(I0
tS'b'
tRp362
(I1
(I1
tg6
I00
S'\x00\x07c\xef\xeejT@'
tbag2
(g3
(I0
tS'b'
tRp363
(I1
(I1
tg6
I00
S'D|\x14\xfc\x81*W@'
tbag2
(g3
(I0
tS'b'
tRp364
(I1
(I1
tg6
I00
S'\xfe\tBY\xa0\xc8V@'
tbag2
(g3
(I0
tS'b'
tRp365
(I1
(I1
tg6
I00
S'"y\x82g\x06iV@'
tbag2
(g3
(I0
tS'b'
tRp366
(I1
(I1
tg6
I00
S'\xf4L\xcd\x04\x16TX@'
tbag2
(g3
(I0
tS'b'
tRp367
(I1
(I1
tg6
I00
S'\xf0\x17B)\x85\xfaV@'
tbag2
(g3
(I0
tS'b'
tRp368
(I1
(I1
tg6
I00
S'%\x0e"a<\xb3T@'
tbag2
(g3
(I0
tS'b'
tRp369
(I1
(I1
tg6
I00
S'\xe2\xe0\xce>ukT@'
tbag2
(g3
(I0
tS'b'
tRp370
(I1
(I1
tg6
I00
S'x>R\x1f\xf1NU@'
tbag2
(g3
(I0
tS'b'
tRp371
(I1
(I1
tg6
I00
S'\x04m\x18\x0c \x06V@'
tbag2
(g3
(I0
tS'b'
tRp372
(I1
(I1
tg6
I00
S'\x9a>Qg\xa3dW@'
tbag2
(g3
(I0
tS'b'
tRp373
(I1
(I1
tg6
I00
S'\x12\x8f\xe3KbUZ@'
tbag2
(g3
(I0
tS'b'
tRp374
(I1
(I1
tg6
I00
S'\x9e\xc2\x94\xca\x17A\\@'
tbag2
(g3
(I0
tS'b'
tRp375
(I1
(I1
tg6
I00
S'\x86\xc1\x99;l4Z@'
tbag2
(g3
(I0
tS'b'
tRp376
(I1
(I1
tg6
I00
S'\x80C\xe6\xcc\xc0*Y@'
tbag2
(g3
(I0
tS'b'
tRp377
(I1
(I1
tg6
I00
S'\xc2q\xc1m\xd8MZ@'
tbag2
(g3
(I0
tS'b'
tRp378
(I1
(I1
tg6
I00
S'\xbcw\xa3\xc0\xe2\xf5Y@'
tbag2
(g3
(I0
tS'b'
tRp379
(I1
(I1
tg6
I00
S'T\xa0A-\x0e\xb1Y@'
tbag2
(g3
(I0
tS'b'
tRp380
(I1
(I1
tg6
I00
S'\x16"\xb6\xff\\\xd1[@'
tbag2
(g3
(I0
tS'b'
tRp381
(I1
(I1
tg6
I00
S'\xb0\x99\x04&\xe9\x90[@'
tbag2
(g3
(I0
tS'b'
tRp382
(I1
(I1
tg6
I00
S'BJ\xdb\tc\x01Z@'
tbag2
(g3
(I0
tS'b'
tRp383
(I1
(I1
tg6
I00
S'\x12\x9c\xd3o\xceSX@'
tbag2
(g3
(I0
tS'b'
tRp384
(I1
(I1
tg6
I00
S'\x0c5\xff\x14\x19\x14X@'
tbag2
(g3
(I0
tS'b'
tRp385
(I1
(I1
tg6
I00
S'\xc6l\x1f\xea\xc4dW@'
tbag2
(g3
(I0
tS'b'
tRp386
(I1
(I1
tg6
I00
S' \xd9\xec\x0f\xefYU@'
tbag2
(g3
(I0
tS'b'
tRp387
(I1
(I1
tg6
I00
S'\xba\xefu\xcf\xdc\x82U@'
tbag2
(g3
(I0
tS'b'
tRp388
(I1
(I1
tg6
I00
S'\xf0\xc8+\xc4`3X@'
tbag2
(g3
(I0
tS'b'
tRp389
(I1
(I1
tg6
I00
S'\xea9\xb5\xd5\x06\x16V@'
tbag2
(g3
(I0
tS'b'
tRp390
(I1
(I1
tg6
I00
S'\xbaD\xb92VvT@'
tbag2
(g3
(I0
tS'b'
tRp391
(I1
(I1
tg6
I00
S'DR(-f4U@'
tbag2
(g3
(I0
tS'b'
tRp392
(I1
(I1
tg6
I00
S'\xc4\x8b\xa1\xb2\xc3\xb8S@'
tbag2
(g3
(I0
tS'b'
tRp393
(I1
(I1
tg6
I00
S'\x80\xe8\x1b\xda\xbf\xf7P@'
tbag2
(g3
(I0
tS'b'
tRp394
(I1
(I1
tg6
I00
S'+\x97c\x0f\xf0\xdaO@'
tbag2
(g3
(I0
tS'b'
tRp395
(I1
(I1
tg6
I00
S'\x14\x9b \xc4\x97\xbdP@'
tbag2
(g3
(I0
tS'b'
tRp396
(I1
(I1
tg6
I00
S'\xb8\xa9\x94{\xa9\xe2Q@'
tbag2
(g3
(I0
tS'b'
tRp397
(I1
(I1
tg6
I00
S' uWaORQ@'
tbag2
(g3
(I0
tS'b'
tRp398
(I1
(I1
tg6
I00
S'\xf9\xc7n\x96\x9dQR@'
tbag2
(g3
(I0
tS'b'
tRp399
(I1
(I1
tg6
I00
S'\xa4R:\xb7\xb7\x88S@'
tbag2
(g3
(I0
tS'b'
tRp400
(I1
(I1
tg6
I00
S'@^\xa5(\x9b\x15Q@'
tbag2
(g3
(I0
tS'b'
tRp401
(I1
(I1
tg6
I00
S'6\xc0\x15\xe6Z\x16N@'
tbag2
(g3
(I0
tS'b'
tRp402
(I1
(I1
tg6
I00
S'tA\xb3\x88\xfc\xebO@'
tbag2
(g3
(I0
tS'b'
tRp403
(I1
(I1
tg6
I00
S'\x84 \x92A\xccrO@'
tbag2
(g3
(I0
tS'b'
tRp404
(I1
(I1
tg6
I00
S'z\xbe\x99\x95\xcdSN@'
tbag2
(g3
(I0
tS'b'
tRp405
(I1
(I1
tg6
I00
S'\xa98\x8ck\xe4FQ@'
tbag2
(g3
(I0
tS'b'
tRp406
(I1
(I1
tg6
I00
S'\xef\x11\xca\xd5s\xa6V@'
tbag2
(g3
(I0
tS'b'
tRp407
(I1
(I1
tg6
I00
S'\xe3\xb1\xa2Bm\x10X@'
tbag2
(g3
(I0
tS'b'
tRp408
(I1
(I1
tg6
I00
S'\xfa\xe0\xb5K\x8d\x9bW@'
tbag2
(g3
(I0
tS'b'
tRp409
(I1
(I1
tg6
I00
S'\xbe\xd6\xdc\xa0^&X@'
tbag2
(g3
(I0
tS'b'
tRp410
(I1
(I1
tg6
I00
S"\xe00v'\xf7\xf3X@"
tbag2
(g3
(I0
tS'b'
tRp411
(I1
(I1
tg6
I00
S'Z\xbb\x17\xff8qW@'
tbag2
(g3
(I0
tS'b'
tRp412
(I1
(I1
tg6
I00
S'\xe4\x93\xb7\x0f\xb3\xeeW@'
tbag2
(g3
(I0
tS'b'
tRp413
(I1
(I1
tg6
I00
S'\x8e\xe4\xf0\x8d\xde-[@'
tbag2
(g3
(I0
tS'b'
tRp414
(I1
(I1
tg6
I00
S'\\\x8f\xbe@\xbe\xeb[@'
tbag2
(g3
(I0
tS'b'
tRp415
(I1
(I1
tg6
I00
S'\xf2=*\xdf\xb7Z[@'
tbag2
(g3
(I0
tS'b'
tRp416
(I1
(I1
tg6
I00
S'.W/\xcb\xeaT\\@'
tbag2
(g3
(I0
tS'b'
tRp417
(I1
(I1
tg6
I00
S'\x9e\xdee\xa5\xae\xd9[@'
tbag2
(g3
(I0
tS'b'
tRp418
(I1
(I1
tg6
I00
S'j\xcb\xfd\xb1\xf0(Z@'
tbag2
(g3
(I0
tS'b'
tRp419
(I1
(I1
tg6
I00
S'\xe0 \xde\xa5\x92\x05Y@'
tbag2
(g3
(I0
tS'b'
tRp420
(I1
(I1
tg6
I00
S'\x9e\xea\xca\xf8\x8doZ@'
tbag2
(g3
(I0
tS'b'
tRp421
(I1
(I1
tg6
I00
S'lp\x10\xf1\x8b\x9a\\@'
tbag2
(g3
(I0
tS'b'
tRp422
(I1
(I1
tg6
I00
S'R\x06\xd2\xe7\x8f\xa0Z@'
tbag2
(g3
(I0
tS'b'
tRp423
(I1
(I1
tg6
I00
S'\xee\x0f\xc4\xda\x02!Z@'
tbag2
(g3
(I0
tS'b'
tRp424
(I1
(I1
tg6
I00
S'\x82D\xae5\xe8\x0b[@'
tbag2
(g3
(I0
tS'b'
tRp425
(I1
(I1
tg6
I00
S'\xf0\x81\x91\x07\xf1\x90X@'
tbag2
(g3
(I0
tS'b'
tRp426
(I1
(I1
tg6
I00
S'\x96\xder?\xfbCV@'
tbag2
(g3
(I0
tS'b'
tRp427
(I1
(I1
tg6
I00
S'\x02\xb9\xed\x0c\x97\xa3V@'
tbag2
(g3
(I0
tS'b'
tRp428
(I1
(I1
tg6
I00
S':\xc2\xeer\xf2\xefV@'
tbag2
(g3
(I0
tS'b'
tRp429
(I1
(I1
tg6
I00
S'\xc0\x96\xbf \xc5]V@'
tbag2
(g3
(I0
tS'b'
tRp430
(I1
(I1
tg6
I00
S'n\t\x07\xc1\x1a\x13W@'
tbag2
(g3
(I0
tS'b'
tRp431
(I1
(I1
tg6
I00
S'"\x126!\xb2\xe9V@'
tbag2
(g3
(I0
tS'b'
tRp432
(I1
(I1
tg6
I00
S'\x821\x17\x98\x81\x08V@'
tbag2
(g3
(I0
tS'b'
tRp433
(I1
(I1
tg6
I00
S'\xb2\xd7fh\x1d[S@'
tbag2
(g3
(I0
tS'b'
tRp434
(I1
(I1
tg6
I00
S'l1\xdc|\x869R@'
tbag2
(g3
(I0
tS'b'
tRp435
(I1
(I1
tg6
I00
S'\xe2q\xf6\xe5\xb4;R@'
tbag2
(g3
(I0
tS'b'
tRp436
(I1
(I1
tg6
I00
S'\xc1\x92\xf7\x8a2^P@'
tbag2
(g3
(I0
tS'b'
tRp437
(I1
(I1
tg6
I00
S'y\xf0\xb4\x91\x82\x8cO@'
tbag2
(g3
(I0
tS'b'
tRp438
(I1
(I1
tg6
I00
S'\xff\xf5\xd4\xf0\xbd\xb5R@'
tbag2
(g3
(I0
tS'b'
tRp439
(I1
(I1
tg6
I00
S'\xb1T\xfd\x15yPU@'
tbag2
(g3
(I0
tS'b'
tRp440
(I1
(I1
tg6
I00
S'.\xfcU\x9f\xb9\x0cU@'
tbag2
(g3
(I0
tS'b'
tRp441
(I1
(I1
tg6
I00
S'z\xc6Kz\xd7\x97U@'
tbag2
(g3
(I0
tS'b'
tRp442
(I1
(I1
tg6
I00
S'\xd8\xb3\xdd\x06\xcc\x83U@'
tbag2
(g3
(I0
tS'b'
tRp443
(I1
(I1
tg6
I00
S'\xd8";\x04\x00YT@'
tbag2
(g3
(I0
tS'b'
tRp444
(I1
(I1
tg6
I00
S'\xd0\xf0\xa4ur\x08S@'
tbag2
(g3
(I0
tS'b'
tRp445
(I1
(I1
tg6
I00
S'\x04\x16\x8ck\x98.T@'
tbag2
(g3
(I0
tS'b'
tRp446
(I1
(I1
tg6
I00
S'\x11\xdben\x0c\xd0V@'
tbag2
(g3
(I0
tS'b'
tRp447
(I1
(I1
tg6
I00
S'\xde5AbZ\x06V@'
tbag2
(g3
(I0
tS'b'
tRp448
(I1
(I1
tg6
I00
S'\x9c\xcdX\xf2\xd9JV@'
tbag2
(g3
(I0
tS'b'
tRp449
(I1
(I1
tg6
I00
S'\xf0=\x94\xb0"\x14X@'
tbag2
(g3
(I0
tS'b'
tRp450
(I1
(I1
tg6
I00
S'Z\xeby\x86FPV@'
tbag2
(g3
(I0
tS'b'
tRp451
(I1
(I1
tg6
I00
S'j\xd6Z\xc4\xd1CT@'
tbag2
(g3
(I0
tS'b'
tRp452
(I1
(I1
tg6
I00
S'\x8eo\xbd\xce`yT@'
tbag2
(g3
(I0
tS'b'
tRp453
(I1
(I1
tg6
I00
S'\xf2OJ\xedK2U@'
tbag2
(g3
(I0
tS'b'
tRp454
(I1
(I1
tg6
I00
S'HnJb\xf5yU@'
tbag2
(g3
(I0
tS'b'
tRp455
(I1
(I1
tg6
I00
S'<\x1fD\x06=\xd0T@'
tbag2
(g3
(I0
tS'b'
tRp456
(I1
(I1
tg6
I00
S'z]\xbd\x01=cW@'
tbag2
(g3
(I0
tS'b'
tRp457
(I1
(I1
tg6
I00
S'\xd6-\xf8H\xe7!X@'
tbag2
(g3
(I0
tS'b'
tRp458
(I1
(I1
tg6
I00
S'P\xabl\xe1i\xd5U@'
tbag2
(g3
(I0
tS'b'
tRp459
(I1
(I1
tg6
I00
S'\n^s6\xc3\xecT@'
tbag2
(g3
(I0
tS'b'
tRp460
(I1
(I1
tg6
I00
S't}\xdb\xc2\x1b\x9aU@'
tbag2
(g3
(I0
tS'b'
tRp461
(I1
(I1
tg6
I00
S'\xbc<\xf5S\xd0\x93T@'
tbag2
(g3
(I0
tS'b'
tRp462
(I1
(I1
tg6
I00
S'\xe9\xef~T\xafQT@'
tbag2
(g3
(I0
tS'b'
tRp463
(I1
(I1
tg6
I00
S'\xcc\x89l\xdb>\xc0V@'
tbag2
(g3
(I0
tS'b'
tRp464
(I1
(I1
tg6
I00
S'\x82\xa1\x05;l9X@'
tbag2
(g3
(I0
tS'b'
tRp465
(I1
(I1
tg6
I00
S'\x94P\xcc\xb74\x0bW@'
tbag2
(g3
(I0
tS'b'
tRp466
(I1
(I1
tg6
I00
S'\xfcz\xee\xf0\x12}V@'
tbag2
(g3
(I0
tS'b'
tRp467
(I1
(I1
tg6
I00
S'N|8(\xb6mV@'
tbag2
(g3
(I0
tS'b'
tRp468
(I1
(I1
tg6
I00
S'dkB3\x05\x8eU@'
tbag2
(g3
(I0
tS'b'
tRp469
(I1
(I1
tg6
I00
S'\x94\x85\xc0M4\xeaS@'
tbag2
(g3
(I0
tS'b'
tRp470
(I1
(I1
tg6
I00
S'N\x0f"W\xc3\xb3T@'
tbag2
(g3
(I0
tS'b'
tRp471
(I1
(I1
tg6
I00
S'\xfcz\x92\x88"UW@'
tbag2
(g3
(I0
tS'b'
tRp472
(I1
(I1
tg6
I00
S'\xac\xc5\x97\xa4n\x8aX@'
tbag2
(g3
(I0
tS'b'
tRp473
(I1
(I1
tg6
I00
S'\x1e\xc6\x8e\x12\x1bQY@'
tbag2
(g3
(I0
tS'b'
tRp474
(I1
(I1
tg6
I00
S'0.\x07\x89<\xe9[@'
tbag2
(g3
(I0
tS'b'
tRp475
(I1
(I1
tg6
I00
S'\xa0{\xfd\xbc5\xd5Z@'
tbag2
(g3
(I0
tS'b'
tRp476
(I1
(I1
tg6
I00
S'ha\x83g\xfb\x04Y@'
tbag2
(g3
(I0
tS'b'
tRp477
(I1
(I1
tg6
I00
S"T\xc5'$\\\x0eY@"
tbag2
(g3
(I0
tS'b'
tRp478
(I1
(I1
tg6
I00
S'\x92\x1c\n\xc3\xef2Z@'
tbag2
(g3
(I0
tS'b'
tRp479
(I1
(I1
tg6
I00
S'^\x95\xe2\xfb]S[@'
tbag2
(g3
(I0
tS'b'
tRp480
(I1
(I1
tg6
I00
S'~\xd2t\x9e\xa2T[@'
tbag2
(g3
(I0
tS'b'
tRp481
(I1
(I1
tg6
I00
S'b\x8c\xc3R)\x0f[@'
tbag2
(g3
(I0
tS'b'
tRp482
(I1
(I1
tg6
I00
S'x\xff8\x9a\x0bi[@'
tbag2
(g3
(I0
tS'b'
tRp483
(I1
(I1
tg6
I00
S'j=\xcf\x88d!X@'
tbag2
(g3
(I0
tS'b'
tRp484
(I1
(I1
tg6
I00
S'2\xebT\xc7mxV@'
tbag2
(g3
(I0
tS'b'
tRp485
(I1
(I1
tg6
I00
S'\x82q\xd6&\x93\x15W@'
tbag2
(g3
(I0
tS'b'
tRp486
(I1
(I1
tg6
I00
S'|Icz8OV@'
tbag2
(g3
(I0
tS'b'
tRp487
(I1
(I1
tg6
I00
S'\x8e~m\xf9\xca\xe2U@'
tbag2
(g3
(I0
tS'b'
tRp488
(I1
(I1
tg6
I00
S'2f\x078\xf3fW@'
tbag2
(g3
(I0
tS'b'
tRp489
(I1
(I1
tg6
I00
S'\xd0<\xf3\x18\x83\xfbV@'
tbag2
(g3
(I0
tS'b'
tRp490
(I1
(I1
tg6
I00
S'\x04}3\x11,<U@'
tbag2
(g3
(I0
tS'b'
tRp491
(I1
(I1
tg6
I00
S'\xf6\xf4kU\x05-S@'
tbag2
(g3
(I0
tS'b'
tRp492
(I1
(I1
tg6
I00
S'\xd4x.\xd7\x9f\xdfR@'
tbag2
(g3
(I0
tS'b'
tRp493
(I1
(I1
tg6
I00
S'\x142\xa3\xbf:\x12R@'
tbag2
(g3
(I0
tS'b'
tRp494
(I1
(I1
tg6
I00
S'\x80\xe7\xa0\xefN\xd1O@'
tbag2
(g3
(I0
tS'b'
tRp495
(I1
(I1
tg6
I00
S'f\x82\xbf\x02\xc7(P@'
tbag2
(g3
(I0
tS'b'
tRp496
(I1
(I1
tg6
I00
S'0\xf4\\\x1f\x17\xa2R@'
tbag2
(g3
(I0
tS'b'
tRp497
(I1
(I1
tg6
I00
S'\xfe\x00\xb1\xee\x04nR@'
tbag2
(g3
(I0
tS'b'
tRp498
(I1
(I1
tg6
I00
S'v\xd8\xc8A+\xa7Q@'
tbag2
(g3
(I0
tS'b'
tRp499
(I1
(I1
tg6
I00
S'\xb4\x99>8\x84\xb9R@'
tbag2
(g3
(I0
tS'b'
tRp500
(I1
(I1
tg6
I00
S'\xa1k\xbe\xea\xaa\xb8Q@'
tbag2
(g3
(I0
tS'b'
tRp501
(I1
(I1
tg6
I00
S')\xb2\xe9\xc54\x8bN@'
tbag2
(g3
(I0
tS'b'
tRp502
(I1
(I1
tg6
I00
S"\xb4'\xc0\x95\x0e\xedL@"
tbag2
(g3
(I0
tS'b'
tRp503
(I1
(I1
tg6
I00
S'S\xbc\xc2<\xc9\xecN@'
tbag2
(g3
(I0
tS'b'
tRp504
(I1
(I1
tg6
I00
S'"\x1e4\xc1\x84\xf5P@'
tbag2
(g3
(I0
tS'b'
tRp505
(I1
(I1
tg6
I00
S'!\x1a\xdfp\xd0mQ@'
tbag2
(g3
(I0
tS'b'
tRp506
(I1
(I1
tg6
I00
S'\xcc\xed\xbf\x17\xfd\x06V@'
tbag2
(g3
(I0
tS'b'
tRp507
(I1
(I1
tg6
I00
S'\x94\xbc\x887\xfa\rY@'
tbag2
(g3
(I0
tS'b'
tRp508
(I1
(I1
tg6
I00
S'mo\xd1I\xdf\xa1W@'
tbag2
(g3
(I0
tS'b'
tRp509
(I1
(I1
tg6
I00
S'\xdcnO\xcd\xb0\x9cV@'
tbag2
(g3
(I0
tS'b'
tRp510
(I1
(I1
tg6
I00
S'`\xb7\xd3\x00\xecFX@'
tbag2
(g3
(I0
tS'b'
tRp511
(I1
(I1
tg6
I00
S'\x98\xf2<Y\xd7\xa5X@'
tbag2
(g3
(I0
tS'b'
tRp512
(I1
(I1
tg6
I00
S'J\x9b|\xc1\xf4\xccX@'
tbag2
(g3
(I0
tS'b'
tRp513
(I1
(I1
tg6
I00
S'\xa6\x04\xbd\x06\x13jZ@'
tbag2
(g3
(I0
tS'b'
tRp514
(I1
(I1
tg6
I00
S'\x16\xf0\xbd\xe6\x16x\\@'
tbag2
(g3
(I0
tS'b'
tRp515
(I1
(I1
tg6
I00
S'\xea\x91\x1e\x83\x19e\\@'
tbag2
(g3
(I0
tS'b'
tRp516
(I1
(I1
tg6
I00
S'~\x8b\xeaM\x9a\xd1Z@'
tbag2
(g3
(I0
tS'b'
tRp517
(I1
(I1
tg6
I00
S'|\x1f\x87e\xc9\xdaZ@'
tbag2
(g3
(I0
tS'b'
tRp518
(I1
(I1
tg6
I00
S'\xd0\xa6C%\xc7?[@'
tbag2
(g3
(I0
tS'b'
tRp519
(I1
(I1
tg6
I00
S'\xce \xa1\xeaMjY@'
tbag2
(g3
(I0
tS'b'
tRp520
(I1
(I1
tg6
I00
S'\x9a\x8d\x9fJQ\xd9Y@'
tbag2
(g3
(I0
tS'b'
tRp521
(I1
(I1
tg6
I00
S'\xc4"\x03\x13\xd3\xc7\\@'
tbag2
(g3
(I0
tS'b'
tRp522
(I1
(I1
tg6
I00
S'\xaawgg\xd1\xb1[@'
tbag2
(g3
(I0
tS'b'
tRp523
(I1
(I1
tg6
I00
S'f\xd91\xe4\xd4\xd0Y@'
tbag2
(g3
(I0
tS'b'
tRp524
(I1
(I1
tg6
I00
S'\xc4\xea\x8ddB\xc6Y@'
tbag2
(g3
(I0
tS'b'
tRp525
(I1
(I1
tg6
I00
S'.\xa8r\x84\xb5\xceX@'
tbag2
(g3
(I0
tS'b'
tRp526
(I1
(I1
tg6
I00
S'x\xa5*\xfc\x95\xafV@'
tbag2
(g3
(I0
tS'b'
tRp527
(I1
(I1
tg6
I00
S'\x911K\xca\xfd.U@'
tbag2
(g3
(I0
tS'b'
tRp528
(I1
(I1
tg6
I00
S'\xf2\xf2\xccM\x05}V@'
tbag2
(g3
(I0
tS'b'
tRp529
(I1
(I1
tg6
I00
S'\xfa\xac676GX@'
tbag2
(g3
(I0
tS'b'
tRp530
(I1
(I1
tg6
I00
S'.\xb6b\xb5VwW@'
tbag2
(g3
(I0
tS'b'
tRp531
(I1
(I1
tg6
I00
S'\x84P\x8d\xb8p\xfeU@'
tbag2
(g3
(I0
tS'b'
tRp532
(I1
(I1
tg6
I00
S'\xbe\xae\xf1\xfd\xfc~V@'
tbag2
(g3
(I0
tS'b'
tRp533
(I1
(I1
tg6
I00
S'\xc4\x1fSCS\x86S@'
tbag2
(g3
(I0
tS'b'
tRp534
(I1
(I1
tg6
I00
S'\x827\x08\x9a\xd1\x1bQ@'
tbag2
(g3
(I0
tS'b'
tRp535
(I1
(I1
tg6
I00
S'\x0c\x8f\xd5\x84\x92UQ@'
tbag2
(g3
(I0
tS'b'
tRp536
(I1
(I1
tg6
I00
S'\xb0\xab\x90N\x1c\x7fQ@'
tbag2
(g3
(I0
tS'b'
tRp537
(I1
(I1
tg6
I00
S'\x8e\xda8T\\\x00Q@'
tbag2
(g3
(I0
tS'b'
tRp538
(I1
(I1
tg6
I00
S'\xa0\xe64\xb0=\xe5Q@'
tbag2
(g3
(I0
tS'b'
tRp539
(I1
(I1
tg6
I00
S'I\x87z\xfbZuU@'
tbag2
(g3
(I0
tS'b'
tRp540
(I1
(I1
tg6
I00
S'\xa8K\xb2N\x04QV@'
tbag2
(g3
(I0
tS'b'
tRp541
(I1
(I1
tg6
I00
S'\xa1\x03\x10f\xb3\x8fT@'
tbag2
(g3
(I0
tS'b'
tRp542
(I1
(I1
tg6
I00
S'\x80\xa2h\x98oWT@'
tbag2
(g3
(I0
tS'b'
tRp543
(I1
(I1
tg6
I00
S'-\xe2\xbb\xf1\xe4\xfcT@'
tbag2
(g3
(I0
tS'b'
tRp544
(I1
(I1
tg6
I00
S'L\x04\x8c\\S\xa0S@'
tbag2
(g3
(I0
tS'b'
tRp545
(I1
(I1
tg6
I00
S'd\x13?\xb3\xd9\xa6S@'
tbag2
(g3
(I0
tS'b'
tRp546
(I1
(I1
tg6
I00
S'\x0e\x02\x99\x1e\xd6\x9cV@'
tbag2
(g3
(I0
tS'b'
tRp547
(I1
(I1
tg6
I00
S'\xf4\x88\xc7H\xe4\x88W@'
tbag2
(g3
(I0
tS'b'
tRp548
(I1
(I1
tg6
I00
S'|\xd3\xe6[\xca\x8fV@'
tbag2
(g3
(I0
tS'b'
tRp549
(I1
(I1
tg6
I00
S'd|\xebm{}V@'
tbag2
(g3
(I0
tS'b'
tRp550
(I1
(I1
tg6
I00
S'\x8a\xd2\xefQ.CV@'
tbag2
(g3
(I0
tS'b'
tRp551
(I1
(I1
tg6
I00
S'\x13b\xe7R\x8e\xf4T@'
tbag2
(g3
(I0
tS'b'
tRp552
(I1
(I1
tg6
I00
S'\xb9\xb8\xa3\\\\\x88S@'
tbag2
(g3
(I0
tS'b'
tRp553
(I1
(I1
tg6
I00
S'\x1e\xa3\xb3[F\xcdT@'
tbag2
(g3
(I0
tS'b'
tRp554
(I1
(I1
tg6
I00
S'H\xeev?\xf5BW@'
tbag2
(g3
(I0
tS'b'
tRp555
(I1
(I1
tg6
I00
S'%\xc2R~P`U@'
tbag2
(g3
(I0
tS'b'
tRp556
(I1
(I1
tg6
I00
S'H\xf0i\x06\x8c$V@'
tbag2
(g3
(I0
tS'b'
tRp557
(I1
(I1
tg6
I00
S'lQ\x9b3\xa9\x0eX@'
tbag2
(g3
(I0
tS'b'
tRp558
(I1
(I1
tg6
I00
S'\xec\xaaa\x9ct%V@'
tbag2
(g3
(I0
tS'b'
tRp559
(I1
(I1
tg6
I00
S'\x97\xa3\x08\xbc\xb9;T@'
tbag2
(g3
(I0
tS'b'
tRp560
(I1
(I1
tg6
I00
S'\x92\x06i%\xdd{T@'
tbag2
(g3
(I0
tS'b'
tRp561
(I1
(I1
tg6
I00
S'^\xe4\xcd\x10\x999U@'
tbag2
(g3
(I0
tS'b'
tRp562
(I1
(I1
tg6
I00
S'\xa8\xceq~a\xb8U@'
tbag2
(g3
(I0
tS'b'
tRp563
(I1
(I1
tg6
I00
S'\xe0X\xb8\x11/\xc5U@'
tbag2
(g3
(I0
tS'b'
tRp564
(I1
(I1
tg6
I00
S'b\x9f\xa3\x85\xb7\xe1W@'
tbag2
(g3
(I0
tS'b'
tRp565
(I1
(I1
tg6
I00
S'\x92\r\x8a\xbe\x8fyX@'
tbag2
(g3
(I0
tS'b'
tRp566
(I1
(I1
tg6
I00
S'\xfe\x87\xa8\x1eh\xe3U@'
tbag2
(g3
(I0
tS'b'
tRp567
(I1
(I1
tg6
I00
S'\x7f\x80;qS\tU@'
tbag2
(g3
(I0
tS'b'
tRp568
(I1
(I1
tg6
I00
S'"\xb1\xd1\\P\xb6U@'
tbag2
(g3
(I0
tS'b'
tRp569
(I1
(I1
tg6
I00
S"b'\x11\x9a\xfc\xadT@"
tbag2
(g3
(I0
tS'b'
tRp570
(I1
(I1
tg6
I00
S'\xf8\xa5\xcf\xbb+\x9dT@'
tbag2
(g3
(I0
tS'b'
tRp571
(I1
(I1
tg6
I00
S'\x9e\x14\x99t\xfa\xecV@'
tbag2
(g3
(I0
tS'b'
tRp572
(I1
(I1
tg6
I00
S'f\x85,y\x011Z@'
tbag2
(g3
(I0
tS'b'
tRp573
(I1
(I1
tg6
I00
S'\x9a\x00\x1f\x18\x17\rZ@'
tbag2
(g3
(I0
tS'b'
tRp574
(I1
(I1
tg6
I00
S':v?\rA\xefY@'
tbag2
(g3
(I0
tS'b'
tRp575
(I1
(I1
tg6
I00
S'\x04\x9bi\xd1\xeapZ@'
tbag2
(g3
(I0
tS'b'
tRp576
(I1
(I1
tg6
I00
S'\xe8\x92\xcd\x89\x04\xf2Y@'
tbag2
(g3
(I0
tS'b'
tRp577
(I1
(I1
tg6
I00
S'\xdc\xbfG\xe0\xaa\x99X@'
tbag2
(g3
(I0
tS'b'
tRp578
(I1
(I1
tg6
I00
S"0\x15+'\x97\xd5Y@"
tbag2
(g3
(I0
tS'b'
tRp579
(I1
(I1
tg6
I00
S'\xc0C$?\xf7\x8d\\@'
tbag2
(g3
(I0
tS'b'
tRp580
(I1
(I1
tg6
I00
S"\xe4'S<\xdaC\\@"
tbag2
(g3
(I0
tS'b'
tRp581
(I1
(I1
tg6
I00
S'F\xc6\xe3\x17\x1d\xf3Y@'
tbag2
(g3
(I0
tS'b'
tRp582
(I1
(I1
tg6
I00
S"x\xe0\xd7'\xaf\xceZ@"
tbag2
(g3
(I0
tS'b'
tRp583
(I1
(I1
tg6
I00
S'. \xfb\x19\xf0\xd4X@'
tbag2
(g3
(I0
tS'b'
tRp584
(I1
(I1
tg6
I00
S'_\x94\xf6\xbfxTV@'
tbag2
(g3
(I0
tS'b'
tRp585
(I1
(I1
tg6
I00
S'U>+Ao\xd5U@'
tbag2
(g3
(I0
tS'b'
tRp586
(I1
(I1
tg6
I00
S'\xbe\xcb\xc5\xcb\xfd\x8aV@'
tbag2
(g3
(I0
tS'b'
tRp587
(I1
(I1
tg6
I00
S"\x8a\x16\x06'\x83\x83W@"
tbag2
(g3
(I0
tS'b'
tRp588
(I1
(I1
tg6
I00
S'r1LG\xdb\xb4V@'
tbag2
(g3
(I0
tS'b'
tRp589
(I1
(I1
tg6
I00
S'RN\x1ar\xaf`V@'
tbag2
(g3
(I0
tS'b'
tRp590
(I1
(I1
tg6
I00
S'\xfc\xd5\x87;\x10\x93V@'
tbag2
(g3
(I0
tS'b'
tRp591
(I1
(I1
tg6
I00
S'\xc4n-\x8fr\xeeR@'
tbag2
(g3
(I0
tS'b'
tRp592
(I1
(I1
tg6
I00
S'n1\xf0/6:Q@'
tbag2
(g3
(I0
tS'b'
tRp593
(I1
(I1
tg6
I00
S'\xf6\x828\x02\t\xbbQ@'
tbag2
(g3
(I0
tS'b'
tRp594
(I1
(I1
tg6
I00
S'D\xe5}s*\xd7P@'
tbag2
(g3
(I0
tS'b'
tRp595
(I1
(I1
tg6
I00
S'\x93\xe8\x18\xfe\x05\x83P@'
tbag2
(g3
(I0
tS'b'
tRp596
(I1
(I1
tg6
I00
S'$^n\x82\r\x05R@'
tbag2
(g3
(I0
tS'b'
tRp597
(I1
(I1
tg6
I00
S'\x04AR+\xe4gS@'
tbag2
(g3
(I0
tS'b'
tRp598
(I1
(I1
tg6
I00
S'\xd4\xe5p^]yR@'
tbag2
(g3
(I0
tS'b'
tRp599
(I1
(I1
tg6
I00
S'\x9e\x15\x87\x9f_\xbaP@'
tbag2
(g3
(I0
tS'b'
tRp600
(I1
(I1
tg6
I00
S'\x0f5\x16vW\xe5P@'
tbag2
(g3
(I0
tS'b'
tRp601
(I1
(I1
tg6
I00
S'\xb8\xc2\xf7l\x85dP@'
tbag2
(g3
(I0
tS'b'
tRp602
(I1
(I1
tg6
I00
S'\x9e\xe7[F\x85\xeaL@'
tbag2
(g3
(I0
tS'b'
tRp603
(I1
(I1
tg6
I00
S'S\xb0D\xfb&1N@'
tbag2
(g3
(I0
tS'b'
tRp604
(I1
(I1
tg6
I00
S'&\xaf\xf6\x8dP\x9bQ@'
tbag2
(g3
(I0
tS'b'
tRp605
(I1
(I1
tg6
I00
S'\x0eE\x04-\xfb\xb6R@'
tbag2
(g3
(I0
tS'b'
tRp606
(I1
(I1
tg6
I00
S'p1\x87u\xf4qU@'
tbag2
(g3
(I0
tS'b'
tRp607
(I1
(I1
tg6
I00
S'\xf6\x82\xb7\xd1$\x19X@'
tbag2
(g3
(I0
tS'b'
tRp608
(I1
(I1
tg6
I00
S'\xcc\x89\xf4\xfc\xdakX@'
tbag2
(g3
(I0
tS'b'
tRp609
(I1
(I1
tg6
I00
S'iQk)G\xe8V@'
tbag2
(g3
(I0
tS'b'
tRp610
(I1
(I1
tg6
I00
S'T\x03\xc3\xdd\x0c\xd3V@'
tbag2
(g3
(I0
tS'b'
tRp611
(I1
(I1
tg6
I00
S'\x1d1(\x03\xf2\x9fX@'
tbag2
(g3
(I0
tS'b'
tRp612
(I1
(I1
tg6
I00
S'\x1a\x07\xfc\xd1o\x83Z@'
tbag2
(g3
(I0
tS'b'
tRp613
(I1
(I1
tg6
I00
S'\xd0\x98\to"ZZ@'
tbag2
(g3
(I0
tS'b'
tRp614
(I1
(I1
tg6
I00
S'\x02\xbf\xb7\xfd\x98\xc0[@'
tbag2
(g3
(I0
tS'b'
tRp615
(I1
(I1
tg6
I00
S'BG$\xf3&T]@'
tbag2
(g3
(I0
tS'b'
tRp616
(I1
(I1
tg6
I00
S'6\x02\xba\x8d\xa3\xceZ@'
tbag2
(g3
(I0
tS'b'
tRp617
(I1
(I1
tg6
I00
S'\xf0\xc5\xb9\x8bSJY@'
tbag2
(g3
(I0
tS'b'
tRp618
(I1
(I1
tg6
I00
S'\x0c\x80\x01[p\x8dZ@'
tbag2
(g3
(I0
tS'b'
tRp619
(I1
(I1
tg6
I00
S'x#i\r\xc1\x9aZ@'
tbag2
(g3
(I0
tS'b'
tRp620
(I1
(I1
tg6
I00
S'XiY\x9d.\xb4Z@'
tbag2
(g3
(I0
tS'b'
tRp621
(I1
(I1
tg6
I00
S'\xf4mY\x0f\xa1\x01\\@'
tbag2
(g3
(I0
tS'b'
tRp622
(I1
(I1
tg6
I00
S'\xe0k\x90\xb9\x1e\x08\\@'
tbag2
(g3
(I0
tS'b'
tRp623
(I1
(I1
tg6
I00
S'\x10{\x93\xd7*\xc1Z@'
tbag2
(g3
(I0
tS'b'
tRp624
(I1
(I1
tg6
I00
S'\x08\xe9\xa0{t1X@'
tbag2
(g3
(I0
tS'b'
tRp625
(I1
(I1
tg6
I00
S'\x8as\x90\xb3\xed\xc2W@'
tbag2
(g3
(I0
tS'b'
tRp626
(I1
(I1
tg6
I00
S'J\xb9\x9e\x13e\xbcW@'
tbag2
(g3
(I0
tS'b'
tRp627
(I1
(I1
tg6
I00
S'l}J\xe7v\x8bU@'
tbag2
(g3
(I0
tS'b'
tRp628
(I1
(I1
tg6
I00
S'^\x08:4\xc6\xdfU@'
tbag2
(g3
(I0
tS'b'
tRp629
(I1
(I1
tg6
I00
S't\xf7\xa5\xca\x97nX@'
tbag2
(g3
(I0
tS'b'
tRp630
(I1
(I1
tg6
I00
S'\xfa\x84\x97\xda\xca\xb7X@'
tbag2
(g3
(I0
tS'b'
tRp631
(I1
(I1
tg6
I00
S'\xc4\x92?\x0ey\xc2U@'
tbag2
(g3
(I0
tS'b'
tRp632
(I1
(I1
tg6
I00
S'B\xdf!GM\x11U@'
tbag2
(g3
(I0
tS'b'
tRp633
(I1
(I1
tg6
I00
S'ds\xac\xbb\x03\xe8S@'
tbag2
(g3
(I0
tS'b'
tRp634
(I1
(I1
tg6
I00
S'+mW\x95\x82\x95Q@'
tbag2
(g3
(I0
tS'b'
tRp635
(I1
(I1
tg6
I00
S'\xc9L\xbb5\x85\xd3O@'
tbag2
(g3
(I0
tS'b'
tRp636
(I1
(I1
tg6
I00
S' ,}i\x98FQ@'
tbag2
(g3
(I0
tS'b'
tRp637
(I1
(I1
tg6
I00
S'\xa8<%8J\xd2R@'
tbag2
(g3
(I0
tS'b'
tRp638
(I1
(I1
tg6
I00
S'\xf5V\x95\x9d\x91xR@'
tbag2
(g3
(I0
tS'b'
tRp639
(I1
(I1
tg6
I00
S'\xdc\x98\x8c\x9b\x9a\xa0T@'
tbag2
(g3
(I0
tS'b'
tRp640
(I1
(I1
tg6
I00
S'\x06\xdc\x9b\xff\xf0\xd6V@'
tbag2
(g3
(I0
tS'b'
tRp641
(I1
(I1
tg6
I00
S'\x1d\xd6cN\xd4\xc6T@'
tbag2
(g3
(I0
tS'b'
tRp642
(I1
(I1
tg6
I00
S'\x96\x9b\rw\xddBS@'
tbag2
(g3
(I0
tS'b'
tRp643
(I1
(I1
tg6
I00
S'Us\xccv:\x1eT@'
tbag2
(g3
(I0
tS'b'
tRp644
(I1
(I1
tg6
I00
S'x\x89\x04\xdd\xaf\xc7T@'
tbag2
(g3
(I0
tS'b'
tRp645
(I1
(I1
tg6
I00
S'J9N\x14F\xe6T@'
tbag2
(g3
(I0
tS'b'
tRp646
(I1
(I1
tg6
I00
S'v\x8f\x94-\xfc\x9cU@'
tbag2
(g3
(I0
tS'b'
tRp647
(I1
(I1
tg6
I00
S'\xbe\xa8P~l\x99W@'
tbag2
(g3
(I0
tS'b'
tRp648
(I1
(I1
tg6
I00
S'\x18T\x178\xc1\xc7W@'
tbag2
(g3
(I0
tS'b'
tRp649
(I1
(I1
tg6
I00
S'\xde\x04\x0f\xbc"mU@'
tbag2
(g3
(I0
tS'b'
tRp650
(I1
(I1
tg6
I00
S'\xb4\x02Sg\x08\x11U@'
tbag2
(g3
(I0
tS'b'
tRp651
(I1
(I1
tg6
I00
S'<\xad\xe7`\t\x94U@'
tbag2
(g3
(I0
tS'b'
tRp652
(I1
(I1
tg6
I00
S'\xfc`.\n\xb7\x1cT@'
tbag2
(g3
(I0
tS'b'
tRp653
(I1
(I1
tg6
I00
S'\xd2\x90@\xce\xcaBT@'
tbag2
(g3
(I0
tS'b'
tRp654
(I1
(I1
tg6
I00
S'Z\xf4e\x00\x91\rW@'
tbag2
(g3
(I0
tS'b'
tRp655
(I1
(I1
tg6
I00
S'\xb8\xdf\xc1S\x02\xadV@'
tbag2
(g3
(I0
tS'b'
tRp656
(I1
(I1
tg6
I00
S'\xb6\xe8i6\x9fOV@'
tbag2
(g3
(I0
tS'b'
tRp657
(I1
(I1
tg6
I00
S'\x88$\xac\xfep2V@'
tbag2
(g3
(I0
tS'b'
tRp658
(I1
(I1
tg6
I00
S"j\xeb\xdbut'V@"
tbag2
(g3
(I0
tS'b'
tRp659
(I1
(I1
tg6
I00
S'j<\x98\xa7\xf8\xeaT@'
tbag2
(g3
(I0
tS'b'
tRp660
(I1
(I1
tg6
I00
S'\x8aO\x03G-\x87S@'
tbag2
(g3
(I0
tS'b'
tRp661
(I1
(I1
tg6
I00
S'\r\xacQ1\xa6\x04U@'
tbag2
(g3
(I0
tS'b'
tRp662
(I1
(I1
tg6
I00
S'\nM\x8f,iaW@'
tbag2
(g3
(I0
tS'b'
tRp663
(I1
(I1
tg6
I00
S'\xea\xd5\x18\xbcJ}V@'
tbag2
(g3
(I0
tS'b'
tRp664
(I1
(I1
tg6
I00
S'(}\xde\x8d\xdf\xb3V@'
tbag2
(g3
(I0
tS'b'
tRp665
(I1
(I1
tg6
I00
S'\x02\x1dX\xc3d<X@'
tbag2
(g3
(I0
tS'b'
tRp666
(I1
(I1
tg6
I00
S'u\xda\xe9\x98\x8cVV@'
tbag2
(g3
(I0
tS'b'
tRp667
(I1
(I1
tg6
I00
S'O\xb8\xa3e\x9deT@'
tbag2
(g3
(I0
tS'b'
tRp668
(I1
(I1
tg6
I00
S'.\xc6\xb8w/\xa0T@'
tbag2
(g3
(I0
tS'b'
tRp669
(I1
(I1
tg6
I00
S'\x00\xaaP\x07}YU@'
tbag2
(g3
(I0
tS'b'
tRp670
(I1
(I1
tg6
I00
S'\xaa\xb3\xb2\x16\xb4\x07V@'
tbag2
(g3
(I0
tS'b'
tRp671
(I1
(I1
tg6
I00
S'\xb0!\x17\xe2\x1b\xf5U@'
tbag2
(g3
(I0
tS'b'
tRp672
(I1
(I1
tg6
I00
S'\xfc\xaeF\xe5\n\x10Z@'
tbag2
(g3
(I0
tS'b'
tRp673
(I1
(I1
tg6
I00
S'\xc4\x0e\xc1;\xf8\x95[@'
tbag2
(g3
(I0
tS'b'
tRp674
(I1
(I1
tg6
I00
S'\\\x7ff\x9a\x94gY@'
tbag2
(g3
(I0
tS'b'
tRp675
(I1
(I1
tg6
I00
S' /\xad>\x80\x19Y@'
tbag2
(g3
(I0
tS'b'
tRp676
(I1
(I1
tg6
I00
S'fw\xae\x9dj$Z@'
tbag2
(g3
(I0
tS'b'
tRp677
(I1
(I1
tg6
I00
S'<\xeav\x0e\xc7eY@'
tbag2
(g3
(I0
tS'b'
tRp678
(I1
(I1
tg6
I00
S'Jh\xc8\x08\x12\xc6Y@'
tbag2
(g3
(I0
tS'b'
tRp679
(I1
(I1
tg6
I00
S'<\x9c\\J\xc3+\\@'
tbag2
(g3
(I0
tS'b'
tRp680
(I1
(I1
tg6
I00
S'Ry\x1e\x9fG\xbb]@'
tbag2
(g3
(I0
tS'b'
tRp681
(I1
(I1
tg6
I00
S'\x94#\xd0\xc8\xee\x9aZ@'
tbag2
(g3
(I0
tS'b'
tRp682
(I1
(I1
tg6
I00
S'\xba\x17\xfb\xc5\x8a\xc8X@'
tbag2
(g3
(I0
tS'b'
tRp683
(I1
(I1
tg6
I00
S'\xe3@\xc1y\x97hX@'
tbag2
(g3
(I0
tS'b'
tRp684
(I1
(I1
tg6
I00
S"`\x9e'\xab\xdb;W@"
tbag2
(g3
(I0
tS'b'
tRp685
(I1
(I1
tg6
I00
S'\xa2f\x1d\x16t\\U@'
tbag2
(g3
(I0
tS'b'
tRp686
(I1
(I1
tg6
I00
S'>.\xee\x95y^V@'
tbag2
(g3
(I0
tS'b'
tRp687
(I1
(I1
tg6
I00
S'\x0e\xdb\x0eh\xa5\x9fX@'
tbag2
(g3
(I0
tS'b'
tRp688
(I1
(I1
tg6
I00
S'85\xc0\x02XeW@'
tbag2
(g3
(I0
tS'b'
tRp689
(I1
(I1
tg6
I00
S'A\xe5\xa6\xcf=&U@'
tbag2
(g3
(I0
tS'b'
tRp690
(I1
(I1
tg6
I00
S'\xb0\xb1\n\x8fX\xb0U@'
tbag2
(g3
(I0
tS'b'
tRp691
(I1
(I1
tg6
I00
S'\x10\xce@R`\xafS@'
tbag2
(g3
(I0
tS'b'
tRp692
(I1
(I1
tg6
I00
S'\x97\x1f\xad\xb1\x91\x13Q@'
tbag2
(g3
(I0
tS'b'
tRp693
(I1
(I1
tg6
I00
S'<C\xb6n)vP@'
tbag2
(g3
(I0
tS'b'
tRp694
(I1
(I1
tg6
I00
S'\xf0?\x05U3BQ@'
tbag2
(g3
(I0
tS'b'
tRp695
(I1
(I1
tg6
I00
S'FV\x13@\xf8\x02R@'
tbag2
(g3
(I0
tS'b'
tRp696
(I1
(I1
tg6
I00
S'b\xd0\x06\x97\xa2zQ@'
tbag2
(g3
(I0
tS'b'
tRp697
(I1
(I1
tg6
I00
S'$\xd1\xc1\xe2\x96\xddR@'
tbag2
(g3
(I0
tS'b'
tRp698
(I1
(I1
tg6
I00
S'\x14j\xda]G\xdaS@'
tbag2
(g3
(I0
tS'b'
tRp699
(I1
(I1
tg6
I00
S'\xfa\xd1S?\xce\x82P@'
tbag2
(g3
(I0
tS'b'
tRp700
(I1
(I1
tg6
I00
S'py5%9\x89N@'
tbag2
(g3
(I0
tS'b'
tRp701
(I1
(I1
tg6
I00
S'\xf9\xe0\x94?\xc2\x10P@'
tbag2
(g3
(I0
tS'b'
tRp702
(I1
(I1
tg6
I00
S'\xc6\xc8Ve\x1f\xcdN@'
tbag2
(g3
(I0
tS'b'
tRp703
(I1
(I1
tg6
I00
S'\xc3z\x83\x8e\xa5\xe9N@'
tbag2
(g3
(I0
tS'b'
tRp704
(I1
(I1
tg6
I00
S'\xa8\n\xceL)\x00Q@'
tbag2
(g3
(I0
tS'b'
tRp705
(I1
(I1
tg6
I00
S'L\xf2W\xf9m\xe6S@'
tbag2
(g3
(I0
tS'b'
tRp706
(I1
(I1
tg6
I00
S'\x8a\xd4\x18\xb3\xc5]V@'
tbag2
(g3
(I0
tS'b'
tRp707
(I1
(I1
tg6
I00
S'\xf0\xf6\x1b=\x1b+V@'
tbag2
(g3
(I0
tS'b'
tRp708
(I1
(I1
tg6
I00
S'z\xf8\x9d\xe6\x10\xa5W@'
tbag2
(g3
(I0
tS'b'
tRp709
(I1
(I1
tg6
I00
S'\xc6i\xe8\xb4\xe8\x10X@'
tbag2
(g3
(I0
tS'b'
tRp710
(I1
(I1
tg6
I00
S'\x08$\xf8\x13\xc1\xd9V@'
tbag2
(g3
(I0
tS'b'
tRp711
(I1
(I1
tg6
I00
S'\x8efC\xdf\xe0HX@'
tbag2
(g3
(I0
tS'b'
tRp712
(I1
(I1
tg6
I00
S'6\xfb\xca\xf5\xe4.[@'
tbag2
(g3
(I0
tS'b'
tRp713
(I1
(I1
tg6
I00
S'\xec\x14S\xf0\xe3s[@'
tbag2
(g3
(I0
tS'b'
tRp714
(I1
(I1
tg6
I00
S'\x8e\x90J\x95(\x17[@'
tbag2
(g3
(I0
tS'b'
tRp715
(I1
(I1
tg6
I00
S'\x18\xcd\x85P\xb3\x1e\\@'
tbag2
(g3
(I0
tS'b'
tRp716
(I1
(I1
tg6
I00
S'4"\xd4\x813\xac[@'
tbag2
(g3
(I0
tS'b'
tRp717
(I1
(I1
tg6
I00
S'\xb6\xdf\xa8\x0b}\x98Y@'
tbag2
(g3
(I0
tS'b'
tRp718
(I1
(I1
tg6
I00
S'P\x15)3\x95\x19Y@'
tbag2
(g3
(I0
tS'b'
tRp719
(I1
(I1
tg6
I00
S'\x98\xad\xc8\x8dE\xc8Z@'
tbag2
(g3
(I0
tS'b'
tRp720
(I1
(I1
tg6
I00
S'\xbe\x8f\xea\xa1\xb8M\\@'
tbag2
(g3
(I0
tS'b'
tRp721
(I1
(I1
tg6
I00
S'\x16HE\xa39\xe8[@'
tbag2
(g3
(I0
tS'b'
tRp722
(I1
(I1
tg6
I00
S'.\xb2\x18\xdeO\x17[@'
tbag2
(g3
(I0
tS'b'
tRp723
(I1
(I1
tg6
I00
S'\xa8A4\n_\x94[@'
tbag2
(g3
(I0
tS'b'
tRp724
(I1
(I1
tg6
I00
S',\xc4.\x85A\x1cX@'
tbag2
(g3
(I0
tS'b'
tRp725
(I1
(I1
tg6
I00
S'2n\xdd\x18\xe4$V@'
tbag2
(g3
(I0
tS'b'
tRp726
(I1
(I1
tg6
I00
S'\xe3Z\xfdFk\xffV@'
tbag2
(g3
(I0
tS'b'
tRp727
(I1
(I1
tg6
I00
S'B\x98\x8frB\xb3V@'
tbag2
(g3
(I0
tS'b'
tRp728
(I1
(I1
tg6
I00
S'\nJ\xb5-3\xb3V@'
tbag2
(g3
(I0
tS'b'
tRp729
(I1
(I1
tg6
I00
S'Pm\x8b\xe3{\xa2W@'
tbag2
(g3
(I0
tS'b'
tRp730
(I1
(I1
tg6
I00
S'(\xf71\xe5F=Y@'
tbag2
(g3
(I0
tS'b'
tRp731
(I1
(I1
tg6
I00
S'\x9a\x84\xc2\xbe\x01\xc7V@'
tbag2
(g3
(I0
tS'b'
tRp732
(I1
(I1
tg6
I00
S'\xa4\xcde\xe3\xaf\x88S@'
tbag2
(g3
(I0
tS'b'
tRp733
(I1
(I1
tg6
I00
S'\xc6\xbf\x01\x88P\xe4R@'
tbag2
(g3
(I0
tS'b'
tRp734
(I1
(I1
tg6
I00
S'M\xc5\xff&\xfe\xa7R@'
tbag2
(g3
(I0
tS'b'
tRp735
(I1
(I1
tg6
I00
S'\xb5k*L\x8bJP@'
tbag2
(g3
(I0
tS'b'
tRp736
(I1
(I1
tg6
I00
S'`k\xd4\xb3\xc7\xacP@'
tbag2
(g3
(I0
tS'b'
tRp737
(I1
(I1
tg6
I00
S'L\x0e\x1e\x06S\xfcR@'
tbag2
(g3
(I0
tS'b'
tRp738
(I1
(I1
tg6
I00
S'\xbe\xcb\xa4\xc1]\xefS@'
tbag2
(g3
(I0
tS'b'
tRp739
(I1
(I1
tg6
I00
S'\x9a\xe0\x8b\xd0\x94~T@'
tbag2
(g3
(I0
tS'b'
tRp740
(I1
(I1
tg6
I00
S't\xde\xc1\xa8iFU@'
tbag2
(g3
(I0
tS'b'
tRp741
(I1
(I1
tg6
I00
S'\xb2\xb5\xf2\x92&QU@'
tbag2
(g3
(I0
tS'b'
tRp742
(I1
(I1
tg6
I00
S'\x14\xba\x9b\xb1\xe9\xceS@'
tbag2
(g3
(I0
tS'b'
tRp743
(I1
(I1
tg6
I00
S'\xf8\x1e\x02\xa4\x12\xbfR@'
tbag2
(g3
(I0
tS'b'
tRp744
(I1
(I1
tg6
I00
S'\x88\xd3\x85E\x17\xcdT@'
tbag2
(g3
(I0
tS'b'
tRp745
(I1
(I1
tg6
I00
S'N\xff>\xce\xde\xa3V@'
tbag2
(g3
(I0
tS'b'
tRp746
(I1
(I1
tg6
I00
S'\x922Y\xaa\xce\xf9U@'
tbag2
(g3
(I0
tS'b'
tRp747
(I1
(I1
tg6
I00
S',\x98&\x98\xf7\xacV@'
tbag2
(g3
(I0
tS'b'
tRp748
(I1
(I1
tg6
I00
S'\xae\xf4\xbc\xa8;\x0bX@'
tbag2
(g3
(I0
tS'b'
tRp749
(I1
(I1
tg6
I00
S'u\xcf\xe9>\x13\xb7U@'
tbag2
(g3
(I0
tS'b'
tRp750
(I1
(I1
tg6
I00
S'zwd\xeaR\xfeS@'
tbag2
(g3
(I0
tS'b'
tRp751
(I1
(I1
tg6
I00
S'\xfa\xedOj\xc2\xb4T@'
tbag2
(g3
(I0
tS'b'
tRp752
(I1
(I1
tg6
I00
S'\x80\xa0\x8e\xef\xd5BU@'
tbag2
(g3
(I0
tS'b'
tRp753
(I1
(I1
tg6
I00
S'$x\xa4\xb2\xa8\x80U@'
tbag2
(g3
(I0
tS'b'
tRp754
(I1
(I1
tg6
I00
S'\x0c\xa9\x14n\x9f\x0cV@'
tbag2
(g3
(I0
tS'b'
tRp755
(I1
(I1
tg6
I00
S'rM\x01\xc7\xa9\x88V@'
tbag2
(g3
(I0
tS'b'
tRp756
(I1
(I1
tg6
I00
S'\xcb#\xcb]qnW@'
tbag2
(g3
(I0
tS'b'
tRp757
(I1
(I1
tg6
I00
S'\x02YF<~\x11U@'
tbag2
(g3
(I0
tS'b'
tRp758
(I1
(I1
tg6
I00
S'p\x1f\xfd\xbf\xda\xe8T@'
tbag2
(g3
(I0
tS'b'
tRp759
(I1
(I1
tg6
I00
S'\x1a\xfft\xc2\xd0\x80U@'
tbag2
(g3
(I0
tS'b'
tRp760
(I1
(I1
tg6
I00
S'.5\x9c\xd0\xa0\x13T@'
tbag2
(g3
(I0
tS'b'
tRp761
(I1
(I1
tg6
I00
S'\x10\xb5j\xb8zsT@'
tbag2
(g3
(I0
tS'b'
tRp762
(I1
(I1
tg6
I00
S"t\x99\x01'j&W@"
tbag2
(g3
(I0
tS'b'
tRp763
(I1
(I1
tg6
I00
S'\xac\xc2\x1d\x00s\xf9W@'
tbag2
(g3
(I0
tS'b'
tRp764
(I1
(I1
tg6
I00
S'\x84N\x9a{f\xf3V@'
tbag2
(g3
(I0
tS'b'
tRp765
(I1
(I1
tg6
I00
S'\x16\xd1Z\xff\x97lV@'
tbag2
(g3
(I0
tS'b'
tRp766
(I1
(I1
tg6
I00
S'0\x8e*x\xd6`V@'
tbag2
(g3
(I0
tS'b'
tRp767
(I1
(I1
tg6
I00
S'^\x9b\xcb4\xb9\x1aU@'
tbag2
(g3
(I0
tS'b'
tRp768
(I1
(I1
tg6
I00
S'.\x8e\x86\x0f\xfb\xafS@'
tbag2
(g3
(I0
tS'b'
tRp769
(I1
(I1
tg6
I00
S'\x04sf\xf7]\\U@'
tbag2
(g3
(I0
tS'b'
tRp770
(I1
(I1
tg6
I00
S':\xde\xec\x9b\xb2\x97W@'
tbag2
(g3
(I0
tS'b'
tRp771
(I1
(I1
tg6
I00
S'rS+\x1cI\xdbV@'
tbag2
(g3
(I0
tS'b'
tRp772
(I1
(I1
tg6
I00
S',6n\x0f\xcb\xf7X@'
tbag2
(g3
(I0
tS'b'
tRp773
(I1
(I1
tg6
I00
S'$\x8c\x0fqU3[@'
tbag2
(g3
(I0
tS'b'
tRp774
(I1
(I1
tg6
I00
S'^M\xeb,\xcb\x01Z@'
tbag2
(g3
(I0
tS'b'
tRp775
(I1
(I1
tg6
I00
S'\xe1/\xb54\x16\x87X@'
tbag2
(g3
(I0
tS'b'
tRp776
(I1
(I1
tg6
I00
S'\xda\xb6\x1e\xe8\x00\x1aY@'
tbag2
(g3
(I0
tS'b'
tRp777
(I1
(I1
tg6
I00
S'.\x8aZ\x12\x80NZ@'
tbag2
(g3
(I0
tS'b'
tRp778
(I1
(I1
tg6
I00
S'x\x0c\x84?\x91\x1b[@'
tbag2
(g3
(I0
tS'b'
tRp779
(I1
(I1
tg6
I00
S'.7u\x18]1[@'
tbag2
(g3
(I0
tS'b'
tRp780
(I1
(I1
tg6
I00
S'\xb6\xe9I\x98\x8af]@'
tbag2
(g3
(I0
tS'b'
tRp781
(I1
(I1
tg6
I00
S'Z\x92\x95x\xfc\x0c\\@'
tbag2
(g3
(I0
tS'b'
tRp782
(I1
(I1
tg6
I00
S'\xf8\xd9\xf1\x9a/3X@'
tbag2
(g3
(I0
tS'b'
tRp783
(I1
(I1
tg6
I00
S'\x86\x80\xdd\x99\xb9\x07W@'
tbag2
(g3
(I0
tS'b'
tRp784
(I1
(I1
tg6
I00
S'\xcac\xabY\\gW@'
tbag2
(g3
(I0
tS'b'
tRp785
(I1
(I1
tg6
I00
S'\xa4\xf4P\xb2L#V@'
tbag2
(g3
(I0
tS'b'
tRp786
(I1
(I1
tg6
I00
S'\xf2{!\xee\x96JV@'
tbag2
(g3
(I0
tS'b'
tRp787
(I1
(I1
tg6
I00
S'\xb8j\xff\xc2P:X@'
tbag2
(g3
(I0
tS'b'
tRp788
(I1
(I1
tg6
I00
S' \x94\xfeM\xff\xa5X@'
tbag2
(g3
(I0
tS'b'
tRp789
(I1
(I1
tg6
I00
S'\x1aHv\xd5\xb9\xb3U@'
tbag2
(g3
(I0
tS'b'
tRp790
(I1
(I1
tg6
I00
S'\xb0 \xd2\xb2s\x98S@'
tbag2
(g3
(I0
tS'b'
tRp791
(I1
(I1
tg6
I00
S'\xed\xe3aX\xe85S@'
tbag2
(g3
(I0
tS'b'
tRp792
(I1
(I1
tg6
I00
S'cT:(\xb6\xf0Q@'
tbag2
(g3
(I0
tS'b'
tRp793
(I1
(I1
tg6
I00
S'\x94\x1b]Ut\xe9O@'
tbag2
(g3
(I0
tS'b'
tRp794
(I1
(I1
tg6
I00
S'\xb8J\xb6n\x7f\x0eQ@'
tbag2
(g3
(I0
tS'b'
tRp795
(I1
(I1
tg6
I00
S' \xb1\xc6\xe9\x0b\x19S@'
tbag2
(g3
(I0
tS'b'
tRp796
(I1
(I1
tg6
I00
S'\xf0\xa9\x15\xc6,ZR@'
tbag2
(g3
(I0
tS'b'
tRp797
(I1
(I1
tg6
I00
S']\x0bi\xd59\xb7Q@'
tbag2
(g3
(I0
tS'b'
tRp798
(I1
(I1
tg6
I00
S'V\x1e\x06<g\xcfR@'
tbag2
(g3
(I0
tS'b'
tRp799
(I1
(I1
tg6
I00
S'&s-J\x8cgQ@'
tbag2
(g3
(I0
tS'b'
tRp800
(I1
(I1
tg6
I00
S'\xe8\npm\xeaWN@'
tbag2
(g3
(I0
tS'b'
tRp801
(I1
(I1
tg6
I00
S'\xa8s\xdc\x83*\xa9M@'
tbag2
(g3
(I0
tS'b'
tRp802
(I1
(I1
tg6
I00
S':\x00\x962\xed\x0bP@'
tbag2
(g3
(I0
tS'b'
tRp803
(I1
(I1
tg6
I00
S'@\xe5)#/\xddP@'
tbag2
(g3
(I0
tS'b'
tRp804
(I1
(I1
tg6
I00
S'"\x03\x07\xc2\x87pP@'
tbag2
(g3
(I0
tS'b'
tRp805
(I1
(I1
tg6
I00
S'\n\xb5\x84\xcdf\x8eS@'
tbag2
(g3
(I0
tS'b'
tRp806
(I1
(I1
tg6
I00
S'\x17&\xc5-z\xd6W@'
tbag2
(g3
(I0
tS'b'
tRp807
(I1
(I1
tg6
I00
S'\xcc\x06\x91\xa7\xdf\x03V@'
tbag2
(g3
(I0
tS'b'
tRp808
(I1
(I1
tg6
I00
S'^\xe8\xca\\(\x10V@'
tbag2
(g3
(I0
tS'b'
tRp809
(I1
(I1
tg6
I00
S'\xc6DT\x19;\xc6W@'
tbag2
(g3
(I0
tS'b'
tRp810
(I1
(I1
tg6
I00
S'\xc8\xaf\x17\xc7\x9c\xd2W@'
tbag2
(g3
(I0
tS'b'
tRp811
(I1
(I1
tg6
I00
S'2\x16 \xe0m\xabX@'
tbag2
(g3
(I0
tS'b'
tRp812
(I1
(I1
tg6
I00
S'\x0c\x1d\xff\xc6^\x99Z@'
tbag2
(g3
(I0
tS'b'
tRp813
(I1
(I1
tg6
I00
S'T\x82#\x03\xe6s\\@'
tbag2
(g3
(I0
tS'b'
tRp814
(I1
(I1
tg6
I00
S'\x10@\x81A\x8b\xee[@'
tbag2
(g3
(I0
tS'b'
tRp815
(I1
(I1
tg6
I00
S'\x1c\x85q\xfbB$Z@'
tbag2
(g3
(I0
tS'b'
tRp816
(I1
(I1
tg6
I00
S'\x92\x1f\xe0\xa5#\xddZ@'
tbag2
(g3
(I0
tS'b'
tRp817
(I1
(I1
tg6
I00
S'\x9e\x85\xe8\x8dE\xbbZ@'
tbag2
(g3
(I0
tS'b'
tRp818
(I1
(I1
tg6
I00
S'\xe6\xb2=q\xd1\x1bY@'
tbag2
(g3
(I0
tS'b'
tRp819
(I1
(I1
tg6
I00
S'\x16f\x84i\xa1mZ@'
tbag2
(g3
(I0
tS'b'
tRp820
(I1
(I1
tg6
I00
S'\x8aO\x97[e\xf6\\@'
tbag2
(g3
(I0
tS'b'
tRp821
(I1
(I1
tg6
I00
S'\x18\xa9\xee\x10\x85\xcb\\@'
tbag2
(g3
(I0
tS'b'
tRp822
(I1
(I1
tg6
I00
S'\x80\xa9\x0fR\xd2SZ@'
tbag2
(g3
(I0
tS'b'
tRp823
(I1
(I1
tg6
I00
S'v\xc2\xd5\x06/\x19Z@'
tbag2
(g3
(I0
tS'b'
tRp824
(I1
(I1
tg6
I00
S'\x80\x8e\n)\xc2\x08Y@'
tbag2
(g3
(I0
tS'b'
tRp825
(I1
(I1
tg6
I00
S'f\xfbqFlqV@'
tbag2
(g3
(I0
tS'b'
tRp826
(I1
(I1
tg6
I00
S'\xfct)Z\xc4\x87U@'
tbag2
(g3
(I0
tS'b'
tRp827
(I1
(I1
tg6
I00
S'J\x11\x12S\xbc\x10W@'
tbag2
(g3
(I0
tS'b'
tRp828
(I1
(I1
tg6
I00
S'B\xd7|o\xaa,X@'
tbag2
(g3
(I0
tS'b'
tRp829
(I1
(I1
tg6
I00
S'\xf80\xd3\xed\xc6|W@'
tbag2
(g3
(I0
tS'b'
tRp830
(I1
(I1
tg6
I00
S'\x9e\xb5\xb4\xa8\x0fyX@'
tbag2
(g3
(I0
tS'b'
tRp831
(I1
(I1
tg6
I00
S'-\x1b(^\x9cxW@'
tbag2
(g3
(I0
tS'b'
tRp832
(I1
(I1
tg6
I00
S'\x82Gc\x18\xfc\x9aS@'
tbag2
(g3
(I0
tS'b'
tRp833
(I1
(I1
tg6
I00
S'ZC\x8b"EVQ@'
tbag2
(g3
(I0
tS'b'
tRp834
(I1
(I1
tg6
I00
S'\xf6\x0c\xfd_\xbb\xf4Q@'
tbag2
(g3
(I0
tS'b'
tRp835
(I1
(I1
tg6
I00
S'\xfe\xfa\xe1x&yQ@'
tbag2
(g3
(I0
tS'b'
tRp836
(I1
(I1
tg6
I00
S'|u\xec\xa8\x03\x85Q@'
tbag2
(g3
(I0
tS'b'
tRp837
(I1
(I1
tg6
I00
S'MsI3"4R@'
tbag2
(g3
(I0
tS'b'
tRp838
(I1
(I1
tg6
I00
S'\xae;\xd1bR\xacT@'
tbag2
(g3
(I0
tS'b'
tRp839
(I1
(I1
tg6
I00
S'\xb6\xe77Q\xed\x9dU@'
tbag2
(g3
(I0
tS'b'
tRp840
(I1
(I1
tg6
I00
S'o\xd7\x8br\r\xd0S@'
tbag2
(g3
(I0
tS'b'
tRp841
(I1
(I1
tg6
I00
S'\x16\xf0\x9a\x11\xa8ZT@'
tbag2
(g3
(I0
tS'b'
tRp842
(I1
(I1
tg6
I00
S'\xfc\x10S\x11\xb7\xebT@'
tbag2
(g3
(I0
tS'b'
tRp843
(I1
(I1
tg6
I00
S'\xda:F\xf8`(S@'
tbag2
(g3
(I0
tS'b'
tRp844
(I1
(I1
tg6
I00
S'\xa8\x9e?&\x86:T@'
tbag2
(g3
(I0
tS'b'
tRp845
(I1
(I1
tg6
I00
S"\x9a'\xb3\x9c\x04\xd4V@"
tbag2
(g3
(I0
tS'b'
tRp846
(I1
(I1
tg6
I00
S'o-\xcej\x9aAW@'
tbag2
(g3
(I0
tS'b'
tRp847
(I1
(I1
tg6
I00
S'6\x860\x0f\xe9vV@'
tbag2
(g3
(I0
tS'b'
tRp848
(I1
(I1
tg6
I00
S'\x81;\x04\xde\xa9nV@'
tbag2
(g3
(I0
tS'b'
tRp849
(I1
(I1
tg6
I00
S'0l\xd4gs9V@'
tbag2
(g3
(I0
tS'b'
tRp850
(I1
(I1
tg6
I00
S'k\x86\xdf\xf1\xd1\x84T@'
tbag2
(g3
(I0
tS'b'
tRp851
(I1
(I1
tg6
I00
S'x79]gQS@'
tbag2
(g3
(I0
tS'b'
tRp852
(I1
(I1
tg6
I00
S'\x03\xfe\xe1K&yU@'
tbag2
(g3
(I0
tS'b'
tRp853
(I1
(I1
tg6
I00
S'v\x8f\xdf\x0b\xdd\x1fW@'
tbag2
(g3
(I0
tS'b'
tRp854
(I1
(I1
tg6
I00
S'\xf0e~\x90\x05_V@'
tbag2
(g3
(I0
tS'b'
tRp855
(I1
(I1
tg6
I00
S'\xfd\x8dsV\nbU@'
tbag2
(g3
(I0
tS'b'
tRp856
(I1
(I1
tg6
I00
S'\xa1\xe5\xb5V7aW@'
tbag2
(g3
(I0
tS'b'
tRp857
(I1
(I1
tg6
I00
S">\x19\x9e'fdU@"
tbag2
(g3
(I0
tS'b'
tRp858
(I1
(I1
tg6
I00
S'Y\xf6\xf3(\xc6\xd0S@'
tbag2
(g3
(I0
tS'b'
tRp859
(I1
(I1
tg6
I00
S'\xf4\x8bjh0\x9bT@'
tbag2
(g3
(I0
tS'b'
tRp860
(I1
(I1
tg6
I00
S'?\x9aOV\xe7gU@'
tbag2
(g3
(I0
tS'b'
tRp861
(I1
(I1
tg6
I00
S'L\xddmG\x96\x8fU@'
tbag2
(g3
(I0
tS'b'
tRp862
(I1
(I1
tg6
I00
S'@g\xd1\xcf*\x18V@'
tbag2
(g3
(I0
tS'b'
tRp863
(I1
(I1
tg6
I00
S'"\xbbu\xd4\xb7\x00X@'
tbag2
(g3
(I0
tS'b'
tRp864
(I1
(I1
tg6
I00
S'\x94N"0Y$X@'
tbag2
(g3
(I0
tS'b'
tRp865
(I1
(I1
tg6
I00
S'1<M\xc0\xd8VU@'
tbag2
(g3
(I0
tS'b'
tRp866
(I1
(I1
tg6
I00
S'\xaf\xf4}\xcag)U@'
tbag2
(g3
(I0
tS'b'
tRp867
(I1
(I1
tg6
I00
S'J2\xdf\x04o\xb5U@'
tbag2
(g3
(I0
tS'b'
tRp868
(I1
(I1
tg6
I00
S'\x0c\xa9\x92g*@T@'
tbag2
(g3
(I0
tS'b'
tRp869
(I1
(I1
tg6
I00
S'\xa4\xe7@\xf4\x08\xceT@'
tbag2
(g3
(I0
tS'b'
tRp870
(I1
(I1
tg6
I00
S'\xb0\xcf\x9ei0_W@'
tbag2
(g3
(I0
tS'b'
tRp871
(I1
(I1
tg6
I00
S'DqX\xef\xa2\x8dX@'
tbag2
(g3
(I0
tS'b'
tRp872
(I1
(I1
tg6
I00
S'\xa4\xecW\x05!QY@'
tbag2
(g3
(I0
tS'b'
tRp873
(I1
(I1
tg6
I00
S'"\x15!\x1d\xcftY@'
tbag2
(g3
(I0
tS'b'
tRp874
(I1
(I1
tg6
I00
S'J\x1av\xc6\xc5\x18Z@'
tbag2
(g3
(I0
tS'b'
tRp875
(I1
(I1
tg6
I00
S'\xfax\xa12\x0cFY@'
tbag2
(g3
(I0
tS'b'
tRp876
(I1
(I1
tg6
I00
S'(\x8f\xa1\xb4\xe51X@'
tbag2
(g3
(I0
tS'b'
tRp877
(I1
(I1
tg6
I00
S'"y\x8dO>XZ@'
tbag2
(g3
(I0
tS'b'
tRp878
(I1
(I1
tg6
I00
S'\x94o\xf9\xadS\xb1\\@'
tbag2
(g3
(I0
tS'b'
tRp879
(I1
(I1
tg6
I00
S'0\xbaw-9\xe8[@'
tbag2
(g3
(I0
tS'b'
tRp880
(I1
(I1
tg6
I00
S'\xaa8,\xd1\xf89\\@'
tbag2
(g3
(I0
tS'b'
tRp881
(I1
(I1
tg6
I00
S'~P#;\xcfi[@'
tbag2
(g3
(I0
tS'b'
tRp882
(I1
(I1
tg6
I00
S'R\xec\x82^\x0c\xe1X@'
tbag2
(g3
(I0
tS'b'
tRp883
(I1
(I1
tg6
I00
S'N\x81.\xf6\xf2wV@'
tbag2
(g3
(I0
tS'b'
tRp884
(I1
(I1
tg6
I00
S'\xec\x00\\\\\x05]V@'
tbag2
(g3
(I0
tS'b'
tRp885
(I1
(I1
tg6
I00
S'\x0eS\xb2\xe8|?W@'
tbag2
(g3
(I0
tS'b'
tRp886
(I1
(I1
tg6
I00
S'^!\x0051\x83W@'
tbag2
(g3
(I0
tS'b'
tRp887
(I1
(I1
tg6
I00
S'p\xe1\xbf\xb6~6W@'
tbag2
(g3
(I0
tS'b'
tRp888
(I1
(I1
tg6
I00
S'\xb2\xe2\xdaG\xfb\x17X@'
tbag2
(g3
(I0
tS'b'
tRp889
(I1
(I1
tg6
I00
S':\x9c\xabL\xf7\tW@'
tbag2
(g3
(I0
tS'b'
tRp890
(I1
(I1
tg6
I00
S'\x12\rZ~\xe4\xf0R@'
tbag2
(g3
(I0
tS'b'
tRp891
(I1
(I1
tg6
I00
S'\x8b\xb8\x9e ~\xc7Q@'
tbag2
(g3
(I0
tS'b'
tRp892
(I1
(I1
tg6
I00
S'\xc8!\xea\x8b\x9a\x11R@'
tbag2
(g3
(I0
tS'b'
tRp893
(I1
(I1
tg6
I00
S'39\nF\xf1\xb2P@'
tbag2
(g3
(I0
tS'b'
tRp894
(I1
(I1
tg6
I00
S'\x06\xdf\x82\xf21\xf3P@'
tbag2
(g3
(I0
tS'b'
tRp895
(I1
(I1
tg6
I00
S'l\xc1\xefa\xd2\xadR@'
tbag2
(g3
(I0
tS'b'
tRp896
(I1
(I1
tg6
I00
S'\xc6)\x9eR\x07\xcaS@'
tbag2
(g3
(I0
tS'b'
tRp897
(I1
(I1
tg6
I00
S'\x04V\x97\xb4\xecXR@'
tbag2
(g3
(I0
tS'b'
tRp898
(I1
(I1
tg6
I00
S'F7\xca\x9e\xb6\xc3P@'
tbag2
(g3
(I0
tS'b'
tRp899
(I1
(I1
tg6
I00
S'\x9e\xb7\x15N,\xf6P@'
tbag2
(g3
(I0
tS'b'
tRp900
(I1
(I1
tg6
I00
S'%Z&7\xc9\x0eP@'
tbag2
(g3
(I0
tS'b'
tRp901
(I1
(I1
tg6
I00
S'B\x9b\x1e\xb1\xf0\xaeL@'
tbag2
(g3
(I0
tS'b'
tRp902
(I1
(I1
tg6
I00
S'\x07\x00.hT\xb7O@'
tbag2
(g3
(I0
tS'b'
tRp903
(I1
(I1
tg6
I00
S'\xfa\xca\x0eO\xec\xf5Q@'
tbag2
(g3
(I0
tS'b'
tRp904
(I1
(I1
tg6
I00
S'\xbb[8\\.RQ@'
tbag2
(g3
(I0
tS'b'
tRp905
(I1
(I1
tg6
I00
S'du\xa7\xf0\xd1\x9dR@'
tbag2
(g3
(I0
tS'b'
tRp906
(I1
(I1
tg6
I00
S'\x15\x19d<+\xb1V@'
tbag2
(g3
(I0
tS'b'
tRp907
(I1
(I1
tg6
I00
S'H\x1d\xe9e\xb8\x15W@'
tbag2
(g3
(I0
tS'b'
tRp908
(I1
(I1
tg6
I00
S'l\xcc \xaf\x98\x0cV@'
tbag2
(g3
(I0
tS'b'
tRp909
(I1
(I1
tg6
I00
S'\x08\xe6\xc1\x81_\x98V@'
tbag2
(g3
(I0
tS'b'
tRp910
(I1
(I1
tg6
I00
S'\xf1E\xe7\x07\x0c\xb7X@'
tbag2
(g3
(I0
tS'b'
tRp911
(I1
(I1
tg6
I00
S'\xd6\x9e~\x03{\x00Z@'
tbag2
(g3
(I0
tS'b'
tRp912
(I1
(I1
tg6
I00
S'\x82&>9?\x08Z@'
tbag2
(g3
(I0
tS'b'
tRp913
(I1
(I1
tg6
I00
S'\x1c\x0f\xce"\x1b\xe9[@'
tbag2
(g3
(I0
tS'b'
tRp914
(I1
(I1
tg6
I00
S'\xd6\xf3\xd7\xdc\xb9\x1c]@'
tbag2
(g3
(I0
tS'b'
tRp915
(I1
(I1
tg6
I00
S'\xec("R\xab\x0bZ@'
tbag2
(g3
(I0
tS'b'
tRp916
(I1
(I1
tg6
I00
S'\xb6\xd1\xf4P\xa1GY@'
tbag2
(g3
(I0
tS'b'
tRp917
(I1
(I1
tg6
I00
S'\xf2X\xbb\x9a\x91nZ@'
tbag2
(g3
(I0
tS'b'
tRp918
(I1
(I1
tg6
I00
S'\xa4\xfcD\x99\x82\x12Z@'
tbag2
(g3
(I0
tS'b'
tRp919
(I1
(I1
tg6
I00
S'\xc8\xd9\x1a\x1e\xce\xcdZ@'
tbag2
(g3
(I0
tS'b'
tRp920
(I1
(I1
tg6
I00
S'\x80#\xdf\x031_\\@'
tbag2
(g3
(I0
tS'b'
tRp921
(I1
(I1
tg6
I00
S'\xec \x8f\xf3\x0b\x96]@'
tbag2
(g3
(I0
tS'b'
tRp922
(I1
(I1
tg6
I00
S'v\xe1I\x9e\xe3\x11[@'
tbag2
(g3
(I0
tS'b'
tRp923
(I1
(I1
tg6
I00
S'\xeb\x15\xe3#\xfc\rX@'
tbag2
(g3
(I0
tS'b'
tRp924
(I1
(I1
tg6
I00
S':$@\xce\x19-X@'
tbag2
(g3
(I0
tS'b'
tRp925
(I1
(I1
tg6
I00
S'\x9a\x19\x00\x91p\x8aW@'
tbag2
(g3
(I0
tS'b'
tRp926
(I1
(I1
tg6
I00
S'\xc6\x7f\x87L\xfb\x81U@'
tbag2
(g3
(I0
tS'b'
tRp927
(I1
(I1
tg6
I00
S'\xea\xb5\xd2\xedL\xafV@'
tbag2
(g3
(I0
tS'b'
tRp928
(I1
(I1
tg6
I00
S'\x16)\xd1\x9b\xa3\xcfX@'
tbag2
(g3
(I0
tS'b'
tRp929
(I1
(I1
tg6
I00
S'\xce_\xa2Tr\x8fX@'
tbag2
(g3
(I0
tS'b'
tRp930
(I1
(I1
tg6
I00
S'\xd0d\xde~\xf1\xc9W@'
tbag2
(g3
(I0
tS'b'
tRp931
(I1
(I1
tg6
I00
S'( \xc6W\xc5\tV@'
tbag2
(g3
(I0
tS'b'
tRp932
(I1
(I1
tg6
I00
S'\x9a\x1f\x06\x08\xb6\x8fT@'
tbag2
(g3
(I0
tS'b'
tRp933
(I1
(I1
tg6
I00
S'\xd6jU\n\x9b\xa8Q@'
tbag2
(g3
(I0
tS'b'
tRp934
(I1
(I1
tg6
I00
S'\xda\xbd\x1b+\x82\x81P@'
tbag2
(g3
(I0
tS'b'
tRp935
(I1
(I1
tg6
I00
S'\xfd\x13\xde\xb3g\x0eR@'
tbag2
(g3
(I0
tS'b'
tRp936
(I1
(I1
tg6
I00
S'\x94D\x15wf\xe5R@'
tbag2
(g3
(I0
tS'b'
tRp937
(I1
(I1
tg6
I00
S'\x18D7\xec6\x08R@'
tbag2
(g3
(I0
tS'b'
tRp938
(I1
(I1
tg6
I00
S'\xacK\xber~\x19T@'
tbag2
(g3
(I0
tS'b'
tRp939
(I1
(I1
tg6
I00
S'\xd5A\xfe\xd5n2V@'
tbag2
(g3
(I0
tS'b'
tRp940
(I1
(I1
tg6
I00
S'\x02\xb3\x8f}\xdb\rT@'
tbag2
(g3
(I0
tS'b'
tRp941
(I1
(I1
tg6
I00
S'U\xc7\xa8\xce\x9c\xe0R@'
tbag2
(g3
(I0
tS'b'
tRp942
(I1
(I1
tg6
I00
S'\x7f)\x94A\xcdET@'
tbag2
(g3
(I0
tS'b'
tRp943
(I1
(I1
tg6
I00
S' \x1a\x13\\T\x95T@'
tbag2
(g3
(I0
tS'b'
tRp944
(I1
(I1
tg6
I00
S'6\xf91\xb9\xb8\xfeT@'
tbag2
(g3
(I0
tS'b'
tRp945
(I1
(I1
tg6
I00
S'4\xea\tX\x0c\nV@'
tbag2
(g3
(I0
tS'b'
tRp946
(I1
(I1
tg6
I00
S'\x0e\xd8b\xc7\x88\xcbW@'
tbag2
(g3
(I0
tS'b'
tRp947
(I1
(I1
tg6
I00
S'\xe9\x00p\xff\xbc\x7fW@'
tbag2
(g3
(I0
tS'b'
tRp948
(I1
(I1
tg6
I00
S'\x96\xc0\x9fq\xe6\xeaT@'
tbag2
(g3
(I0
tS'b'
tRp949
(I1
(I1
tg6
I00
S'\x16\x06\xaej\xc29U@'
tbag2
(g3
(I0
tS'b'
tRp950
(I1
(I1
tg6
I00
S'{\xb1$\xad\xf4\x9aU@'
tbag2
(g3
(I0
tS'b'
tRp951
(I1
(I1
tg6
I00
S'g\x9e<a\xa7\xb5S@'
tbag2
(g3
(I0
tS'b'
tRp952
(I1
(I1
tg6
I00
S'\x88\xb5c\xe9g\xe2T@'
tbag2
(g3
(I0
tS'b'
tRp953
(I1
(I1
tg6
I00
S'\xcc\xd5\n\xec\rMW@'
tbag2
(g3
(I0
tS'b'
tRp954
(I1
(I1
tg6
I00
S'\x11?#\x88p\xa4W@'
tbag2
(g3
(I0
tS'b'
tRp955
(I1
(I1
tg6
I00
S'L;\xbd\xa4\xf5\xf5T@'
tbag2
(g3
(I0
tS'b'
tRp956
(I1
(I1
tg6
I00
S'\xad\xd6\xb7\x8a\x9e\xaaU@'
tbag2
(g3
(I0
tS'b'
tRp957
(I1
(I1
tg6
I00
S'd\xc5\xf9#M\xd5U@'
tbag2
(g3
(I0
tS'b'
tRp958
(I1
(I1
tg6
I00
S'^\x17\xd0xfJT@'
tbag2
(g3
(I0
tS'b'
tRp959
(I1
(I1
tg6
I00
S'\xf4\xc4\xb5|\xd1-S@'
tbag2
(g3
(I0
tS'b'
tRp960
(I1
(I1
tg6
I00
S'\x911\x82\xb4\xf8\x95U@'
tbag2
(g3
(I0
tS'b'
tRp961
(I1
(I1
tg6
I00
S"F\xff$\x13\xcb'W@"
tbag2
(g3
(I0
tS'b'
tRp962
(I1
(I1
tg6
I00
S'C2\xf2\xfc\xaddV@'
tbag2
(g3
(I0
tS'b'
tRp963
(I1
(I1
tg6
I00
S'\x06%\x85dM\tW@'
tbag2
(g3
(I0
tS'b'
tRp964
(I1
(I1
tg6
I00
S'\xda\x13 \xf3\x19\xf7W@'
tbag2
(g3
(I0
tS'b'
tRp965
(I1
(I1
tg6
I00
S'\xba*\xcc\xcb\xca\xd1U@'
tbag2
(g3
(I0
tS'b'
tRp966
(I1
(I1
tg6
I00
S'\xc9C0\x9c\xd3!T@'
tbag2
(g3
(I0
tS'b'
tRp967
(I1
(I1
tg6
I00
S'4~\xf5\xbf\xf6\xd9T@'
tbag2
(g3
(I0
tS'b'
tRp968
(I1
(I1
tg6
I00
S'o\xc9@\x08\xbd\xcfU@'
tbag2
(g3
(I0
tS'b'
tRp969
(I1
(I1
tg6
I00
S'VJ\xbb\xfci\xd3U@'
tbag2
(g3
(I0
tS'b'
tRp970
(I1
(I1
tg6
I00
S'\xae\x81\x97\xa5YLV@'
tbag2
(g3
(I0
tS'b'
tRp971
(I1
(I1
tg6
I00
S'\xbch\xa4)\xd0\xc7X@'
tbag2
(g3
(I0
tS'b'
tRp972
(I1
(I1
tg6
I00
S'P t\xff\x11\x9aZ@'
tbag2
(g3
(I0
tS'b'
tRp973
(I1
(I1
tg6
I00
S'\x8d\xa3\xa3\x9a\x94oX@'
tbag2
(g3
(I0
tS'b'
tRp974
(I1
(I1
tg6
I00
S'\xac\xd7\xfc\xffS\xedX@'
tbag2
(g3
(I0
tS'b'
tRp975
(I1
(I1
tg6
I00
S'\x08\x18\xe3&\xfe\xe9Y@'
tbag2
(g3
(I0
tS'b'
tRp976
(I1
(I1
tg6
I00
S'\xd6=\xdd\xa6\xc6\xc9X@'
tbag2
(g3
(I0
tS'b'
tRp977
(I1
(I1
tg6
I00
S'4\xf7\xce\xb4V\xd0Y@'
tbag2
(g3
(I0
tS'b'
tRp978
(I1
(I1
tg6
I00
S'\n7&H\x8f~\\@'
tbag2
(g3
(I0
tS'b'
tRp979
(I1
(I1
tg6
I00
S'2\x9f7Q<k]@'
tbag2
(g3
(I0
tS'b'
tRp980
(I1
(I1
tg6
I00
S"\xcc\xc9'\xd0\xf7~\\@"
tbag2
(g3
(I0
tS'b'
tRp981
(I1
(I1
tg6
I00
S'N\xcc\xd8\x8b\xf7\x9eY@'
tbag2
(g3
(I0
tS'b'
tRp982
(I1
(I1
tg6
I00
S'\nw \x97\xd4\xefX@'
tbag2
(g3
(I0
tS'b'
tRp983
(I1
(I1
tg6
I00
S'\x1c\xec\x11\x7f!1W@'
tbag2
(g3
(I0
tS'b'
tRp984
(I1
(I1
tg6
I00
S'\x0c\xfc\xeb\x1f\x82pU@'
tbag2
(g3
(I0
tS'b'
tRp985
(I1
(I1
tg6
I00
S'\x1a^\x10\x97\xb6EW@'
tbag2
(g3
(I0
tS'b'
tRp986
(I1
(I1
tg6
I00
S'\xf2Q\xefP8\x16Y@'
tbag2
(g3
(I0
tS'b'
tRp987
(I1
(I1
tg6
I00
S'~6\xf2:.\xebW@'
tbag2
(g3
(I0
tS'b'
tRp988
(I1
(I1
tg6
I00
S'\x16ZP\xad\x92\xb5V@'
tbag2
(g3
(I0
tS'b'
tRp989
(I1
(I1
tg6
I00
S'\xa8(\xd8P\xb0\x18V@'
tbag2
(g3
(I0
tS'b'
tRp990
(I1
(I1
tg6
I00
S'n\x0f\x0ckC\xa9S@'
tbag2
(g3
(I0
tS'b'
tRp991
(I1
(I1
tg6
I00
S'\xf8\xf2\xb6#c3Q@'
tbag2
(g3
(I0
tS'b'
tRp992
(I1
(I1
tg6
I00
S'C@\x88\x01\xd7\x01Q@'
tbag2
(g3
(I0
tS'b'
tRp993
(I1
(I1
tg6
I00
S'\xf0;\xd6#\xf8\xfdQ@'
tbag2
(g3
(I0
tS'b'
tRp994
(I1
(I1
tg6
I00
S'\xf81\xa1\x86\xba\nR@'
tbag2
(g3
(I0
tS'b'
tRp995
(I1
(I1
tg6
I00
S'\x1c\xa7\xdf\\\xf3\x9cQ@'
tbag2
(g3
(I0
tS'b'
tRp996
(I1
(I1
tg6
I00
S'6N\xb2i\xdbgS@'
tbag2
(g3
(I0
tS'b'
tRp997
(I1
(I1
tg6
I00
S'\x85T\x90QB\x8dS@'
tbag2
(g3
(I0
tS'b'
tRp998
(I1
(I1
tg6
I00
S'\x12.\x8c\xa1_CP@'
tbag2
(g3
(I0
tS'b'
tRp999
(I1
(I1
tg6
I00
S'i\xf1|\xf5\xff.O@'
tbag2
(g3
(I0
tS'b'
tRp1000
(I1
(I1
tg6
I00
S'\xe3\x86\x0bT*9P@'
tbag2
(g3
(I0
tS'b'
tRp1001
(I1
(I1
tg6
I00
S'|\x93{z\x948N@'
tbag2
(g3
(I0
tS'b'
tRp1002
(I1
(I1
tg6
I00
S'\xf0\xab\x10\x9a\xf7\x89O@'
tbag2
(g3
(I0
tS'b'
tRp1003
(I1
(I1
tg6
I00
S'p\x19Dpr\x8eQ@'
tbag2
(g3
(I0
tS'b'
tRp1004
(I1
(I1
tg6
I00
S'*\t=\x7f\x1c\xc5R@'
tbag2
(g3
(I0
tS'b'
tRp1005
(I1
(I1
tg6
I00
S'nU\xedd\x05vS@'
tba.